(lp0
(lp1
(lp2
I1
aI1
aI1
aI1
aI1
aI2
aI2
aI2
aI2
aI2
aI1
aI1
aI2
aI3
aI3
aI3
aI1
aI1
aI1
aI2
aI2
aI1
aI2
aI2
aI3
aI3
aI3
aI3
aI3
aI1
aI1
aI1
aI1
aI1
aa(lp3
I1
aI1
aI1
aI1
aI1
aI1
aI2
aI2
aI2
aI2
aI2
aI2
aI2
aI2
aI2
aI1
aI1
aI1
aI1
aI3
aI3
aI3
aI3
aI3
aI3
aI3
aI3
aI3
aI1
aI1
aI1
aI1
aI1
aI1
aa(lp4
I1
aI1
aI1
aI1
aI1
aI2
aI2
aI2
aI2
aI1
aI1
aI2
aI2
aI2
aI2
aI1
aI1
aI1
aI1
aI3
aI3
aI3
aI3
aI1
aI1
aI3
aI3
aI3
aI3
aI1
aI1
aI1
aI1
aI1
aa(lp5
F-1.899999976158142
aF0.0
aF0.0
aF0.0
aF0.0
aF0.0
aF0.0
aF0.0
aF0.0
aF0.0
aF0.0
aF0.0
aF0.0
aF0.0
aF0.0
aF0.0
aF0.0
aF0.0
aF0.0
aF0.0
aF0.0
aF0.0
aF0.0
aF0.0
aF0.0
aF0.0
aF0.0
aF0.0
aF0.0
aF0.0
aF0.0
aF0.0
aF0.0
aF0.0
aa(lp6
F3.0
aF0.0
aF0.0
aF0.0
aF0.0
aF0.0
aF0.0
aF0.0
aF0.0
aF0.0
aF0.0
aF0.0
aF0.0
aF0.0
aF0.0
aF0.0
aF0.0
aF0.0
aF0.0
aF0.0
aF0.0
aF0.0
aF0.0
aF0.0
aF0.0
aF0.0
aF0.0
aF0.0
aF0.0
aF0.0
aF0.0
aF0.0
aF0.0
aF0.0
aa(lp7
I-1
aI-1
aI-1
aI-1
aI-1
aI-1
aI27
aI26
aI25
aI24
aI23
aI22
aI21
aI20
aI19
aI-1
aI-1
aI-1
aI-1
aI14
aI13
aI12
aI11
aI10
aI9
aI8
aI7
aI6
aI-1
aI-1
aI-1
aI-1
aI-1
aI-1
aa(lp8
I-1
aI-1
aI-1
aI-1
aI-1
aI28
aI27
aI26
aI25
aI-1
aI-1
aI22
aI21
aI20
aI19
aI-1
aI-1
aI-1
aI-1
aI14
aI13
aI12
aI11
aI-1
aI-1
aI8
aI7
aI6
aI5
aI-1
aI-1
aI-1
aI-1
aI-1
aa(lp9
I2
aI2
aI2
aI2
aI2
aI2
aI2
aI2
aI2
aI2
aI1
aI2
aI2
aI2
aI2
aI2
aI2
aI2
aI2
aI2
aI2
aI2
aI2
aI2
aI2
aI2
aI2
aI2
aI2
aI2
aI2
aI2
aI2
aI2
aaa(lp10
(lp11
I1
aI1
aI1
aI1
aI1
aI2
aI2
aI2
aI2
aI2
aI1
aI1
aI2
aI3
aI3
aI3
aI1
aI1
aI1
aI2
aI2
aI1
aI2
aI2
aI3
aI3
aI3
aI3
aI3
aI1
aI1
aI1
aI1
aI1
aa(lp12
I1
aI1
aI1
aI1
aI1
aI1
aI2
aI2
aI2
aI2
aI2
aI2
aI2
aI2
aI2
aI1
aI1
aI1
aI1
aI3
aI3
aI3
aI3
aI3
aI3
aI3
aI3
aI3
aI1
aI1
aI1
aI1
aI1
aI1
aa(lp13
I1
aI1
aI1
aI1
aI1
aI2
aI2
aI2
aI2
aI1
aI1
aI2
aI2
aI2
aI2
aI1
aI1
aI1
aI1
aI3
aI3
aI3
aI3
aI1
aI1
aI3
aI3
aI3
aI3
aI1
aI1
aI1
aI1
aI1
aa(lp14
F-1.899999976158142
aF0.0
aF0.0
aF0.0
aF0.0
aF0.0
aF0.0
aF0.0
aF0.0
aF0.0
aF0.0
aF0.0
aF0.0
aF0.0
aF0.0
aF0.0
aF0.0
aF0.0
aF0.0
aF0.0
aF0.0
aF0.0
aF0.0
aF0.0
aF0.0
aF0.0
aF0.0
aF0.0
aF0.0
aF0.0
aF0.0
aF0.0
aF0.0
aF0.0
aa(lp15
F3.0
aF0.0
aF0.0
aF0.0
aF0.0
aF0.0
aF0.0
aF0.0
aF0.0
aF0.0
aF0.0
aF0.0
aF0.0
aF0.0
aF0.0
aF0.0
aF0.0
aF0.0
aF0.0
aF0.0
aF0.0
aF0.0
aF0.0
aF0.0
aF0.0
aF0.0
aF0.0
aF0.0
aF0.0
aF0.0
aF0.0
aF0.0
aF0.0
aF0.0
aa(lp16
I-1
aI-1
aI-1
aI-1
aI-1
aI-1
aI27
aI26
aI25
aI24
aI23
aI22
aI21
aI20
aI19
aI-1
aI-1
aI-1
aI-1
aI14
aI13
aI12
aI11
aI10
aI9
aI8
aI7
aI6
aI-1
aI-1
aI-1
aI-1
aI-1
aI-1
aa(lp17
I-1
aI-1
aI-1
aI-1
aI-1
aI28
aI27
aI26
aI25
aI-1
aI-1
aI22
aI21
aI20
aI19
aI-1
aI-1
aI-1
aI-1
aI14
aI13
aI12
aI11
aI-1
aI-1
aI8
aI7
aI6
aI5
aI-1
aI-1
aI-1
aI-1
aI-1
aa(lp18
I2
aI2
aI2
aI2
aI2
aI2
aI2
aI2
aI2
aI2
aI1
aI2
aI2
aI2
aI2
aI2
aI2
aI2
aI2
aI2
aI2
aI2
aI2
aI2
aI2
aI2
aI2
aI2
aI2
aI2
aI2
aI2
aI2
aI2
aaa(lp19
(lp20
I1
aI1
aI1
aI1
aI1
aI2
aI2
aI2
aI2
aI2
aI1
aI1
aI2
aI3
aI3
aI3
aI1
aI1
aI1
aI2
aI2
aI1
aI2
aI2
aI3
aI3
aI3
aI3
aI3
aI1
aI1
aI1
aI1
aI1
aa(lp21
I1
aI1
aI1
aI1
aI1
aI1
aI2
aI2
aI2
aI2
aI2
aI2
aI2
aI2
aI2
aI1
aI1
aI1
aI1
aI3
aI3
aI3
aI3
aI3
aI3
aI3
aI3
aI3
aI1
aI1
aI1
aI1
aI1
aI1
aa(lp22
I1
aI1
aI1
aI1
aI1
aI2
aI2
aI2
aI2
aI1
aI1
aI2
aI2
aI2
aI2
aI1
aI1
aI1
aI1
aI3
aI3
aI3
aI3
aI1
aI1
aI3
aI3
aI3
aI3
aI1
aI1
aI1
aI1
aI1
aa(lp23
F-1.899999976158142
aF0.0
aF0.0
aF0.0
aF0.0
aF0.0
aF0.0
aF0.0
aF0.0
aF0.0
aF0.0
aF0.0
aF0.0
aF0.0
aF0.0
aF0.0
aF0.0
aF0.0
aF0.0
aF0.0
aF0.0
aF0.0
aF0.0
aF0.0
aF0.0
aF0.0
aF0.0
aF0.0
aF0.0
aF0.0
aF0.0
aF0.0
aF0.0
aF0.0
aa(lp24
F3.0
aF0.0
aF0.0
aF0.0
aF0.0
aF0.0
aF0.0
aF0.0
aF0.0
aF0.0
aF0.0
aF0.0
aF0.0
aF0.0
aF0.0
aF0.0
aF0.0
aF0.0
aF0.0
aF0.0
aF0.0
aF0.0
aF0.0
aF0.0
aF0.0
aF0.0
aF0.0
aF0.0
aF0.0
aF0.0
aF0.0
aF0.0
aF0.0
aF0.0
aa(lp25
I-1
aI-1
aI-1
aI-1
aI-1
aI-1
aI27
aI26
aI25
aI24
aI23
aI22
aI21
aI20
aI19
aI-1
aI-1
aI-1
aI-1
aI14
aI13
aI12
aI11
aI10
aI9
aI8
aI7
aI6
aI-1
aI-1
aI-1
aI-1
aI-1
aI-1
aa(lp26
I-1
aI-1
aI-1
aI-1
aI-1
aI28
aI27
aI26
aI25
aI-1
aI-1
aI22
aI21
aI20
aI19
aI-1
aI-1
aI-1
aI-1
aI14
aI13
aI12
aI11
aI-1
aI-1
aI8
aI7
aI6
aI5
aI-1
aI-1
aI-1
aI-1
aI-1
aa(lp27
I2
aI2
aI2
aI2
aI2
aI2
aI2
aI2
aI2
aI2
aI1
aI2
aI2
aI2
aI2
aI2
aI2
aI2
aI2
aI2
aI2
aI2
aI2
aI2
aI2
aI2
aI2
aI2
aI2
aI2
aI2
aI2
aI2
aI2
aaa(lp28
(lp29
I1
aI1
aI1
aI1
aI1
aI2
aI2
aI2
aI2
aI2
aI1
aI1
aI2
aI3
aI3
aI3
aI1
aI1
aI1
aI2
aI2
aI1
aI2
aI2
aI3
aI3
aI3
aI3
aI3
aI1
aI1
aI1
aI1
aI1
aa(lp30
I1
aI1
aI1
aI1
aI1
aI1
aI2
aI2
aI2
aI2
aI2
aI2
aI2
aI2
aI2
aI1
aI1
aI1
aI1
aI3
aI3
aI3
aI3
aI3
aI3
aI3
aI3
aI3
aI1
aI1
aI1
aI1
aI1
aI1
aa(lp31
I1
aI1
aI1
aI1
aI1
aI2
aI2
aI2
aI2
aI1
aI1
aI2
aI2
aI2
aI2
aI1
aI1
aI1
aI1
aI3
aI3
aI3
aI3
aI1
aI1
aI3
aI3
aI3
aI3
aI1
aI1
aI1
aI1
aI1
aa(lp32
F-1.899999976158142
aF0.0
aF0.0
aF0.0
aF0.0
aF0.0
aF0.0
aF0.0
aF0.0
aF0.0
aF0.0
aF0.0
aF0.0
aF0.0
aF0.0
aF0.0
aF0.0
aF0.0
aF0.0
aF0.0
aF0.0
aF0.0
aF0.0
aF0.0
aF0.0
aF0.0
aF0.0
aF0.0
aF0.0
aF0.0
aF0.0
aF0.0
aF0.0
aF0.0
aa(lp33
F3.0
aF0.0
aF0.0
aF0.0
aF0.0
aF0.0
aF0.0
aF0.0
aF0.0
aF0.0
aF0.0
aF0.0
aF0.0
aF0.0
aF0.0
aF0.0
aF0.0
aF0.0
aF0.0
aF0.0
aF0.0
aF0.0
aF0.0
aF0.0
aF0.0
aF0.0
aF0.0
aF0.0
aF0.0
aF0.0
aF0.0
aF0.0
aF0.0
aF0.0
aa(lp34
I-1
aI-1
aI-1
aI-1
aI-1
aI-1
aI27
aI26
aI25
aI24
aI23
aI22
aI21
aI20
aI19
aI-1
aI-1
aI-1
aI-1
aI14
aI13
aI12
aI11
aI10
aI9
aI8
aI7
aI6
aI-1
aI-1
aI-1
aI-1
aI-1
aI-1
aa(lp35
I-1
aI-1
aI-1
aI-1
aI-1
aI28
aI27
aI26
aI25
aI-1
aI-1
aI22
aI21
aI20
aI19
aI-1
aI-1
aI-1
aI-1
aI14
aI13
aI12
aI11
aI-1
aI-1
aI8
aI7
aI6
aI5
aI-1
aI-1
aI-1
aI-1
aI-1
aa(lp36
I2
aI2
aI2
aI2
aI2
aI2
aI2
aI2
aI2
aI2
aI1
aI2
aI2
aI2
aI2
aI2
aI2
aI2
aI2
aI2
aI2
aI2
aI2
aI2
aI2
aI2
aI2
aI2
aI2
aI2
aI2
aI2
aI2
aI2
aaa.