(lp0
(lp1
(lp2
I3
aI3
aI1
aI1
aI1
aI4
aI1
aI1
aa(lp3
I1
aI1
aI1
aI1
aI1
aI1
aI1
aI1
aa(lp4
I1
aI1
aI1
aI1
aI1
aI1
aI1
aI1
aa(lp5
F0.0
aF0.0
aF0.0
aF0.0
aF0.0
aF0.0
aF0.0
aF0.0
aa(lp6
F0.0
aF0.0
aF0.0
aF0.0
aF0.0
aF0.0
aF0.0
aF0.0
aa(lp7
I-1
aI-1
aI-1
aI-1
aI-1
aI-1
aI-1
aI-1
aa(lp8
I-1
aI-1
aI-1
aI-1
aI-1
aI-1
aI-1
aI-1
aa(lp9
I2
aI2
aI1
aI1
aI1
aI2
aI1
aI1
aaa(lp10
(lp11
I3
aI3
aI1
aI1
aI1
aI4
aI2
aI1
aa(lp12
I1
aI1
aI1
aI1
aI1
aI1
aI1
aI1
aa(lp13
I1
aI1
aI1
aI1
aI1
aI1
aI1
aI1
aa(lp14
F0.0
aF0.0
aF0.0
aF0.0
aF0.0
aF0.0
aF0.0
aF0.0
aa(lp15
F0.0
aF0.0
aF0.0
aF0.0
aF0.0
aF0.0
aF0.0
aF0.0
aa(lp16
I-1
aI-1
aI-1
aI-1
aI-1
aI-1
aI-1
aI-1
aa(lp17
I-1
aI-1
aI-1
aI-1
aI-1
aI-1
aI-1
aI-1
aa(lp18
I2
aI2
aI1
aI1
aI1
aI2
aI1
aI1
aaa(lp19
(lp20
I3
aI3
aI1
aI1
aI1
aI4
aI1
aI1
aa(lp21
I1
aI1
aI1
aI1
aI1
aI1
aI1
aI1
aa(lp22
I1
aI1
aI1
aI1
aI1
aI1
aI1
aI1
aa(lp23
F0.0
aF0.0
aF0.0
aF0.0
aF0.0
aF0.0
aF0.0
aF0.0
aa(lp24
F0.0
aF0.0
aF0.0
aF0.0
aF0.0
aF0.0
aF0.0
aF0.0
aa(lp25
I-1
aI-1
aI-1
aI-1
aI-1
aI-1
aI-1
aI-1
aa(lp26
I-1
aI-1
aI-1
aI-1
aI-1
aI-1
aI-1
aI-1
aa(lp27
I2
aI2
aI1
aI1
aI1
aI2
aI1
aI1
aaa(lp28
(lp29
I3
aI3
aI1
aI1
aI1
aI4
aI1
aI4
aa(lp30
I1
aI1
aI1
aI1
aI1
aI1
aI1
aI1
aa(lp31
I1
aI1
aI1
aI1
aI1
aI1
aI1
aI1
aa(lp32
F0.0
aF0.0
aF0.0
aF0.0
aF0.0
aF0.0
aF0.0
aF0.0
aa(lp33
F0.0
aF0.0
aF0.0
aF0.0
aF0.0
aF0.0
aF0.0
aF0.0
aa(lp34
I-1
aI-1
aI-1
aI-1
aI-1
aI-1
aI-1
aI-1
aa(lp35
I-1
aI-1
aI-1
aI-1
aI-1
aI-1
aI-1
aI-1
aa(lp36
I2
aI2
aI1
aI1
aI1
aI2
aI1
aI1
aaa(lp37
(lp38
I3
aI3
aI1
aI1
aI1
aI4
aI4
aI4
aa(lp39
I1
aI1
aI1
aI1
aI1
aI1
aI1
aI1
aa(lp40
I1
aI1
aI1
aI1
aI1
aI1
aI1
aI1
aa(lp41
F0.0
aF0.0
aF0.0
aF0.0
aF0.0
aF0.0
aF0.0
aF0.0
aa(lp42
F0.0
aF0.0
aF0.0
aF0.0
aF0.0
aF0.0
aF0.0
aF0.0
aa(lp43
I-1
aI-1
aI-1
aI-1
aI-1
aI-1
aI-1
aI-1
aa(lp44
I-1
aI-1
aI-1
aI-1
aI-1
aI-1
aI-1
aI-1
aa(lp45
I2
aI2
aI1
aI1
aI1
aI2
aI1
aI1
aaa(lp46
(lp47
I3
aI3
aI1
aI1
aI1
aI4
aI3
aI4
aa(lp48
I1
aI1
aI1
aI1
aI1
aI1
aI1
aI1
aa(lp49
I1
aI1
aI1
aI1
aI1
aI1
aI1
aI1
aa(lp50
F0.0
aF0.0
aF0.0
aF0.0
aF0.0
aF0.0
aF0.0
aF0.0
aa(lp51
F0.0
aF0.0
aF0.0
aF0.0
aF0.0
aF0.0
aF0.0
aF0.0
aa(lp52
I-1
aI-1
aI-1
aI-1
aI-1
aI-1
aI-1
aI-1
aa(lp53
I-1
aI-1
aI-1
aI-1
aI-1
aI-1
aI-1
aI-1
aa(lp54
I2
aI2
aI1
aI1
aI1
aI2
aI1
aI1
aaa(lp55
(lp56
I3
aI3
aI1
aI1
aI1
aI4
aI1
aI3
aa(lp57
I1
aI1
aI1
aI1
aI1
aI1
aI1
aI1
aa(lp58
I1
aI1
aI1
aI1
aI1
aI1
aI1
aI1
aa(lp59
F0.0
aF0.0
aF0.0
aF0.0
aF0.0
aF0.0
aF0.0
aF0.0
aa(lp60
F0.0
aF0.0
aF0.0
aF0.0
aF0.0
aF0.0
aF0.0
aF0.0
aa(lp61
I-1
aI-1
aI-1
aI-1
aI-1
aI-1
aI-1
aI-1
aa(lp62
I-1
aI-1
aI-1
aI-1
aI-1
aI-1
aI-1
aI-1
aa(lp63
I2
aI2
aI1
aI1
aI1
aI2
aI1
aI1
aaa(lp64
(lp65
I3
aI3
aI1
aI1
aI1
aI4
aI1
aI1
aa(lp66
I1
aI1
aI1
aI1
aI1
aI1
aI1
aI1
aa(lp67
I1
aI1
aI1
aI1
aI1
aI1
aI1
aI1
aa(lp68
F0.0
aF0.0
aF0.0
aF0.0
aF0.0
aF0.0
aF0.0
aF0.0
aa(lp69
F0.0
aF0.0
aF0.0
aF0.0
aF0.0
aF0.0
aF0.0
aF0.0
aa(lp70
I-1
aI-1
aI-1
aI-1
aI-1
aI-1
aI-1
aI-1
aa(lp71
I-1
aI-1
aI-1
aI-1
aI-1
aI-1
aI-1
aI-1
aa(lp72
I2
aI2
aI1
aI1
aI1
aI2
aI1
aI1
aaa(lp73
(lp74
I3
aI3
aI1
aI1
aI1
aI4
aI1
aI3
aa(lp75
I1
aI1
aI1
aI1
aI1
aI1
aI1
aI1
aa(lp76
I1
aI1
aI1
aI1
aI1
aI1
aI1
aI1
aa(lp77
F0.0
aF0.0
aF0.0
aF0.0
aF0.0
aF0.0
aF0.0
aF0.0
aa(lp78
F0.0
aF0.0
aF0.0
aF0.0
aF0.0
aF0.0
aF0.0
aF0.0
aa(lp79
I-1
aI-1
aI-1
aI-1
aI-1
aI-1
aI-1
aI-1
aa(lp80
I-1
aI-1
aI-1
aI-1
aI-1
aI-1
aI-1
aI-1
aa(lp81
I2
aI2
aI1
aI1
aI1
aI2
aI1
aI1
aaa(lp82
(lp83
I3
aI3
aI1
aI1
aI1
aI4
aI1
aI1
aa(lp84
I1
aI1
aI1
aI1
aI1
aI1
aI1
aI1
aa(lp85
I1
aI1
aI1
aI1
aI1
aI1
aI1
aI1
aa(lp86
F0.0
aF0.0
aF0.0
aF0.0
aF0.0
aF0.0
aF0.0
aF0.0
aa(lp87
F0.0
aF0.0
aF0.0
aF0.0
aF0.0
aF0.0
aF0.0
aF0.0
aa(lp88
I-1
aI-1
aI-1
aI-1
aI-1
aI-1
aI-1
aI-1
aa(lp89
I-1
aI-1
aI-1
aI-1
aI-1
aI-1
aI-1
aI-1
aa(lp90
I2
aI2
aI1
aI1
aI1
aI2
aI1
aI1
aaa(lp91
(lp92
I3
aI3
aI1
aI1
aI1
aI4
aI1
aI1
aa(lp93
I1
aI1
aI1
aI1
aI1
aI1
aI1
aI1
aa(lp94
I1
aI1
aI1
aI1
aI1
aI1
aI1
aI1
aa(lp95
F0.0
aF0.0
aF0.0
aF0.0
aF0.0
aF0.0
aF0.0
aF0.0
aa(lp96
F0.0
aF0.0
aF0.0
aF0.0
aF0.0
aF0.0
aF0.0
aF0.0
aa(lp97
I-1
aI-1
aI-1
aI-1
aI-1
aI-1
aI-1
aI-1
aa(lp98
I-1
aI-1
aI-1
aI-1
aI-1
aI-1
aI-1
aI-1
aa(lp99
I2
aI2
aI1
aI1
aI1
aI2
aI1
aI1
aaa(lp100
(lp101
I3
aI3
aI2
aI1
aI1
aI4
aI1
aI1
aa(lp102
I1
aI1
aI1
aI1
aI1
aI1
aI1
aI1
aa(lp103
I1
aI1
aI1
aI1
aI1
aI1
aI1
aI1
aa(lp104
F0.0
aF0.0
aF0.0
aF0.0
aF0.0
aF0.0
aF0.0
aF0.0
aa(lp105
F0.0
aF0.0
aF0.0
aF0.0
aF0.0
aF0.0
aF0.0
aF0.0
aa(lp106
I-1
aI-1
aI-1
aI-1
aI-1
aI-1
aI-1
aI-1
aa(lp107
I-1
aI-1
aI-1
aI-1
aI-1
aI-1
aI-1
aI-1
aa(lp108
I2
aI2
aI1
aI1
aI1
aI2
aI1
aI1
aaa(lp109
(lp110
I3
aI3
aI2
aI2
aI1
aI4
aI1
aI1
aa(lp111
I1
aI1
aI1
aI1
aI1
aI1
aI1
aI1
aa(lp112
I1
aI1
aI1
aI1
aI1
aI1
aI1
aI1
aa(lp113
F0.0
aF0.0
aF0.0
aF0.0
aF0.0
aF0.0
aF0.0
aF0.0
aa(lp114
F0.0
aF0.0
aF0.0
aF0.0
aF0.0
aF0.0
aF0.0
aF0.0
aa(lp115
I-1
aI-1
aI-1
aI-1
aI-1
aI-1
aI-1
aI-1
aa(lp116
I-1
aI-1
aI-1
aI-1
aI-1
aI-1
aI-1
aI-1
aa(lp117
I2
aI2
aI1
aI1
aI1
aI2
aI1
aI1
aaa(lp118
(lp119
I3
aI3
aI2
aI2
aI2
aI4
aI1
aI1
aa(lp120
I1
aI1
aI1
aI1
aI1
aI1
aI1
aI1
aa(lp121
I1
aI1
aI1
aI1
aI1
aI1
aI1
aI1
aa(lp122
F0.0
aF0.0
aF0.0
aF0.0
aF0.0
aF0.0
aF0.0
aF0.0
aa(lp123
F0.0
aF0.0
aF0.0
aF0.0
aF0.0
aF0.0
aF0.0
aF0.0
aa(lp124
I-1
aI-1
aI-1
aI-1
aI-1
aI-1
aI-1
aI-1
aa(lp125
I-1
aI-1
aI-1
aI-1
aI-1
aI-1
aI-1
aI-1
aa(lp126
I2
aI2
aI1
aI1
aI1
aI2
aI1
aI1
aaa(lp127
(lp128
I3
aI3
aI2
aI2
aI2
aI4
aI2
aI1
aa(lp129
I1
aI1
aI1
aI1
aI1
aI1
aI1
aI1
aa(lp130
I1
aI1
aI1
aI1
aI1
aI1
aI1
aI1
aa(lp131
F0.0
aF0.0
aF0.0
aF0.0
aF0.0
aF0.0
aF0.0
aF0.0
aa(lp132
F0.0
aF0.0
aF0.0
aF0.0
aF0.0
aF0.0
aF0.0
aF0.0
aa(lp133
I-1
aI-1
aI-1
aI-1
aI-1
aI-1
aI-1
aI-1
aa(lp134
I-1
aI-1
aI-1
aI-1
aI-1
aI-1
aI-1
aI-1
aa(lp135
I2
aI2
aI1
aI1
aI1
aI2
aI1
aI1
aaa(lp136
(lp137
I3
aI3
aI1
aI1
aI1
aI4
aI1
aI1
aa(lp138
I1
aI1
aI1
aI1
aI1
aI1
aI1
aI1
aa(lp139
I1
aI1
aI1
aI1
aI1
aI1
aI1
aI1
aa(lp140
F0.0
aF0.0
aF0.0
aF0.0
aF0.0
aF0.0
aF0.0
aF0.0
aa(lp141
F0.0
aF0.0
aF0.0
aF0.0
aF0.0
aF0.0
aF0.0
aF0.0
aa(lp142
I-1
aI-1
aI-1
aI-1
aI-1
aI-1
aI-1
aI-1
aa(lp143
I-1
aI-1
aI-1
aI-1
aI-1
aI-1
aI-1
aI-1
aa(lp144
I2
aI2
aI1
aI1
aI1
aI2
aI1
aI1
aaa(lp145
(lp146
I3
aI3
aI1
aI1
aI1
aI4
aI1
aI2
aa(lp147
I1
aI1
aI1
aI1
aI1
aI1
aI1
aI1
aa(lp148
I1
aI1
aI1
aI1
aI1
aI1
aI1
aI1
aa(lp149
F0.0
aF0.0
aF0.0
aF0.0
aF0.0
aF0.0
aF0.0
aF0.0
aa(lp150
F0.0
aF0.0
aF0.0
aF0.0
aF0.0
aF0.0
aF0.0
aF0.0
aa(lp151
I-1
aI-1
aI-1
aI-1
aI-1
aI-1
aI-1
aI-1
aa(lp152
I-1
aI-1
aI-1
aI-1
aI-1
aI-1
aI-1
aI-1
aa(lp153
I2
aI2
aI1
aI1
aI1
aI2
aI1
aI1
aaa.