(lp0
(lp1
(lp2
I3
aI3
aI4
aI1
aI1
aI1
aI1
aI1
aI1
aI1
aI3
aI1
aI2
aI1
aI2
aI3
aI2
aI4
aI4
aI3
aI4
aI1
aI2
aI1
aI2
aI3
aI1
aI1
aI1
aI1
aI4
aI1
aI2
aI1
aI2
aI3
aI2
aI1
aI3
aI2
aI3
aI4
aI1
aI2
aI1
aI2
aI4
aI1
aI1
aI1
aI1
aI1
aI1
aI1
aI3
aI4
aI4
aa(lp3
I2
aI2
aI2
aI1
aI1
aI1
aI1
aI1
aI1
aI1
aI2
aI2
aI2
aI2
aI2
aI2
aI2
aI2
aI1
aI2
aI2
aI2
aI2
aI2
aI2
aI2
aI1
aI1
aI1
aI1
aI3
aI3
aI3
aI3
aI3
aI3
aI3
aI1
aI3
aI1
aI3
aI3
aI3
aI3
aI3
aI3
aI3
aI1
aI1
aI1
aI1
aI1
aI1
aI1
aI3
aI3
aI3
aa(lp4
I2
aI2
aI2
aI1
aI1
aI1
aI1
aI1
aI1
aI1
aI2
aI2
aI2
aI2
aI2
aI2
aI1
aI2
aI2
aI1
aI2
aI2
aI2
aI2
aI2
aI2
aI1
aI1
aI1
aI1
aI3
aI3
aI3
aI3
aI3
aI3
aI1
aI1
aI3
aI1
aI3
aI3
aI3
aI3
aI3
aI3
aI3
aI1
aI1
aI1
aI1
aI1
aI1
aI1
aI3
aI3
aI3
aa(lp5
F-16.5
aF0.0
aF0.0
aF0.0
aF0.0
aF0.0
aF0.0
aF0.0
aF0.0
aF0.0
aF0.0
aF0.0
aF0.0
aF0.0
aF0.0
aF0.0
aF0.0
aF0.0
aF0.0
aF0.0
aF0.0
aF0.0
aF0.0
aF0.0
aF0.0
aF0.0
aF0.0
aF0.0
aF0.0
aF0.0
aF0.0
aF0.0
aF0.0
aF0.0
aF0.0
aF0.0
aF0.0
aF0.0
aF0.0
aF0.0
aF0.0
aF0.0
aF0.0
aF0.0
aF0.0
aF0.0
aF0.0
aF0.0
aF0.0
aF0.0
aF0.0
aF0.0
aF0.0
aF0.0
aF0.0
aF0.0
aF0.0
aa(lp6
F-13.0
aF0.0
aF0.0
aF0.0
aF0.0
aF0.0
aF0.0
aF0.0
aF0.0
aF0.0
aF0.0
aF0.0
aF0.0
aF0.0
aF0.0
aF0.0
aF0.0
aF0.0
aF0.0
aF0.0
aF0.0
aF0.0
aF0.0
aF0.0
aF0.0
aF0.0
aF0.0
aF0.0
aF0.0
aF0.0
aF0.0
aF0.0
aF0.0
aF0.0
aF0.0
aF0.0
aF0.0
aF0.0
aF0.0
aF0.0
aF0.0
aF0.0
aF0.0
aF0.0
aF0.0
aF0.0
aF0.0
aF0.0
aF0.0
aF0.0
aF0.0
aF0.0
aF0.0
aF0.0
aF0.0
aF0.0
aF0.0
aa(lp7
I56
aI55
aI54
aI-1
aI-1
aI-1
aI-1
aI-1
aI-1
aI-1
aI46
aI45
aI44
aI43
aI42
aI41
aI40
aI38
aI-1
aI36
aI35
aI34
aI33
aI32
aI31
aI30
aI-1
aI-1
aI-1
aI-1
aI25
aI24
aI23
aI22
aI21
aI20
aI19
aI-1
aI17
aI-1
aI16
aI15
aI14
aI13
aI12
aI11
aI10
aI-1
aI-1
aI-1
aI-1
aI-1
aI-1
aI-1
aI2
aI1
aI0
aa(lp8
I56
aI55
aI54
aI-1
aI-1
aI-1
aI-1
aI-1
aI-1
aI-1
aI46
aI45
aI44
aI43
aI42
aI41
aI-1
aI40
aI38
aI-1
aI35
aI34
aI33
aI32
aI31
aI30
aI-1
aI-1
aI-1
aI-1
aI25
aI24
aI23
aI22
aI21
aI20
aI-1
aI-1
aI18
aI-1
aI17
aI15
aI14
aI13
aI12
aI11
aI10
aI-1
aI-1
aI-1
aI-1
aI-1
aI-1
aI-1
aI2
aI1
aI0
aa(lp9
I2
aI2
aI2
aI2
aI2
aI2
aI2
aI2
aI2
aI2
aI2
aI2
aI2
aI2
aI2
aI2
aI1
aI2
aI2
aI1
aI2
aI2
aI2
aI2
aI2
aI2
aI2
aI2
aI2
aI2
aI2
aI2
aI2
aI2
aI2
aI2
aI1
aI1
aI2
aI1
aI2
aI2
aI2
aI2
aI2
aI2
aI2
aI2
aI2
aI2
aI2
aI2
aI2
aI2
aI2
aI2
aI2
aaa(lp10
(lp11
I3
aI3
aI4
aI1
aI1
aI1
aI1
aI1
aI1
aI1
aI3
aI1
aI2
aI1
aI2
aI3
aI2
aI4
aI4
aI3
aI4
aI1
aI2
aI1
aI2
aI3
aI1
aI1
aI1
aI1
aI4
aI1
aI2
aI1
aI2
aI3
aI2
aI1
aI3
aI4
aI3
aI4
aI1
aI2
aI1
aI2
aI4
aI1
aI1
aI1
aI1
aI1
aI1
aI1
aI3
aI4
aI4
aa(lp12
I2
aI2
aI2
aI1
aI1
aI1
aI1
aI1
aI1
aI1
aI2
aI2
aI2
aI2
aI2
aI2
aI2
aI2
aI1
aI2
aI2
aI2
aI2
aI2
aI2
aI2
aI1
aI1
aI1
aI1
aI3
aI3
aI3
aI3
aI3
aI3
aI3
aI1
aI3
aI1
aI3
aI3
aI3
aI3
aI3
aI3
aI3
aI1
aI1
aI1
aI1
aI1
aI1
aI1
aI3
aI3
aI3
aa(lp13
I2
aI2
aI2
aI1
aI1
aI1
aI1
aI1
aI1
aI1
aI2
aI2
aI2
aI2
aI2
aI2
aI1
aI2
aI2
aI1
aI2
aI2
aI2
aI2
aI2
aI2
aI1
aI1
aI1
aI1
aI3
aI3
aI3
aI3
aI3
aI3
aI1
aI1
aI3
aI1
aI3
aI3
aI3
aI3
aI3
aI3
aI3
aI1
aI1
aI1
aI1
aI1
aI1
aI1
aI3
aI3
aI3
aa(lp14
F-16.5
aF0.0
aF0.0
aF0.0
aF0.0
aF0.0
aF0.0
aF0.0
aF0.0
aF0.0
aF0.0
aF0.0
aF0.0
aF0.0
aF0.0
aF0.0
aF0.0
aF0.0
aF0.0
aF0.0
aF0.0
aF0.0
aF0.0
aF0.0
aF0.0
aF0.0
aF0.0
aF0.0
aF0.0
aF0.0
aF0.0
aF0.0
aF0.0
aF0.0
aF0.0
aF0.0
aF0.0
aF0.0
aF0.0
aF0.0
aF0.0
aF0.0
aF0.0
aF0.0
aF0.0
aF0.0
aF0.0
aF0.0
aF0.0
aF0.0
aF0.0
aF0.0
aF0.0
aF0.0
aF0.0
aF0.0
aF0.0
aa(lp15
F-13.0
aF0.0
aF0.0
aF0.0
aF0.0
aF0.0
aF0.0
aF0.0
aF0.0
aF0.0
aF0.0
aF0.0
aF0.0
aF0.0
aF0.0
aF0.0
aF0.0
aF0.0
aF0.0
aF0.0
aF0.0
aF0.0
aF0.0
aF0.0
aF0.0
aF0.0
aF0.0
aF0.0
aF0.0
aF0.0
aF0.0
aF0.0
aF0.0
aF0.0
aF0.0
aF0.0
aF0.0
aF0.0
aF0.0
aF0.0
aF0.0
aF0.0
aF0.0
aF0.0
aF0.0
aF0.0
aF0.0
aF0.0
aF0.0
aF0.0
aF0.0
aF0.0
aF0.0
aF0.0
aF0.0
aF0.0
aF0.0
aa(lp16
I56
aI55
aI54
aI-1
aI-1
aI-1
aI-1
aI-1
aI-1
aI-1
aI46
aI45
aI44
aI43
aI42
aI41
aI40
aI38
aI-1
aI36
aI35
aI34
aI33
aI32
aI31
aI30
aI-1
aI-1
aI-1
aI-1
aI25
aI24
aI23
aI22
aI21
aI20
aI19
aI-1
aI17
aI-1
aI16
aI15
aI14
aI13
aI12
aI11
aI10
aI-1
aI-1
aI-1
aI-1
aI-1
aI-1
aI-1
aI2
aI1
aI0
aa(lp17
I56
aI55
aI54
aI-1
aI-1
aI-1
aI-1
aI-1
aI-1
aI-1
aI46
aI45
aI44
aI43
aI42
aI41
aI-1
aI40
aI38
aI-1
aI35
aI34
aI33
aI32
aI31
aI30
aI-1
aI-1
aI-1
aI-1
aI25
aI24
aI23
aI22
aI21
aI20
aI-1
aI-1
aI18
aI-1
aI17
aI15
aI14
aI13
aI12
aI11
aI10
aI-1
aI-1
aI-1
aI-1
aI-1
aI-1
aI-1
aI2
aI1
aI0
aa(lp18
I2
aI2
aI2
aI2
aI2
aI2
aI2
aI2
aI2
aI2
aI2
aI2
aI2
aI2
aI2
aI2
aI1
aI2
aI2
aI1
aI2
aI2
aI2
aI2
aI2
aI2
aI2
aI2
aI2
aI2
aI2
aI2
aI2
aI2
aI2
aI2
aI1
aI1
aI2
aI1
aI2
aI2
aI2
aI2
aI2
aI2
aI2
aI2
aI2
aI2
aI2
aI2
aI2
aI2
aI2
aI2
aI2
aaa(lp19
(lp20
I3
aI3
aI4
aI1
aI1
aI1
aI1
aI1
aI1
aI1
aI3
aI1
aI2
aI1
aI2
aI3
aI4
aI4
aI4
aI3
aI4
aI1
aI2
aI1
aI2
aI3
aI1
aI1
aI1
aI1
aI4
aI1
aI2
aI1
aI2
aI3
aI2
aI1
aI3
aI4
aI3
aI4
aI1
aI2
aI1
aI2
aI4
aI1
aI1
aI1
aI1
aI1
aI1
aI1
aI3
aI4
aI4
aa(lp21
I2
aI2
aI2
aI1
aI1
aI1
aI1
aI1
aI1
aI1
aI2
aI2
aI2
aI2
aI2
aI2
aI2
aI2
aI1
aI2
aI2
aI2
aI2
aI2
aI2
aI2
aI1
aI1
aI1
aI1
aI3
aI3
aI3
aI3
aI3
aI3
aI3
aI1
aI3
aI1
aI3
aI3
aI3
aI3
aI3
aI3
aI3
aI1
aI1
aI1
aI1
aI1
aI1
aI1
aI3
aI3
aI3
aa(lp22
I2
aI2
aI2
aI1
aI1
aI1
aI1
aI1
aI1
aI1
aI2
aI2
aI2
aI2
aI2
aI2
aI1
aI2
aI2
aI1
aI2
aI2
aI2
aI2
aI2
aI2
aI1
aI1
aI1
aI1
aI3
aI3
aI3
aI3
aI3
aI3
aI1
aI1
aI3
aI1
aI3
aI3
aI3
aI3
aI3
aI3
aI3
aI1
aI1
aI1
aI1
aI1
aI1
aI1
aI3
aI3
aI3
aa(lp23
F-19.200000762939453
aF0.0
aF0.0
aF0.0
aF0.0
aF0.0
aF0.0
aF0.0
aF0.0
aF0.0
aF0.0
aF0.0
aF0.0
aF0.0
aF0.0
aF0.0
aF0.0
aF0.0
aF0.0
aF0.0
aF0.0
aF0.0
aF0.0
aF0.0
aF0.0
aF0.0
aF0.0
aF0.0
aF0.0
aF0.0
aF0.0
aF0.0
aF0.0
aF0.0
aF0.0
aF0.0
aF0.0
aF0.0
aF0.0
aF0.0
aF0.0
aF0.0
aF0.0
aF0.0
aF0.0
aF0.0
aF0.0
aF0.0
aF0.0
aF0.0
aF0.0
aF0.0
aF0.0
aF0.0
aF0.0
aF0.0
aF0.0
aa(lp24
F-13.0
aF0.0
aF0.0
aF0.0
aF0.0
aF0.0
aF0.0
aF0.0
aF0.0
aF0.0
aF0.0
aF0.0
aF0.0
aF0.0
aF0.0
aF0.0
aF0.0
aF0.0
aF0.0
aF0.0
aF0.0
aF0.0
aF0.0
aF0.0
aF0.0
aF0.0
aF0.0
aF0.0
aF0.0
aF0.0
aF0.0
aF0.0
aF0.0
aF0.0
aF0.0
aF0.0
aF0.0
aF0.0
aF0.0
aF0.0
aF0.0
aF0.0
aF0.0
aF0.0
aF0.0
aF0.0
aF0.0
aF0.0
aF0.0
aF0.0
aF0.0
aF0.0
aF0.0
aF0.0
aF0.0
aF0.0
aF0.0
aa(lp25
I56
aI55
aI54
aI-1
aI-1
aI-1
aI-1
aI-1
aI-1
aI-1
aI46
aI45
aI44
aI43
aI42
aI41
aI40
aI38
aI-1
aI36
aI35
aI34
aI33
aI32
aI31
aI30
aI-1
aI-1
aI-1
aI-1
aI25
aI24
aI23
aI22
aI21
aI20
aI19
aI-1
aI17
aI-1
aI16
aI15
aI14
aI13
aI12
aI11
aI10
aI-1
aI-1
aI-1
aI-1
aI-1
aI-1
aI-1
aI2
aI1
aI0
aa(lp26
I56
aI55
aI54
aI-1
aI-1
aI-1
aI-1
aI-1
aI-1
aI-1
aI46
aI45
aI44
aI43
aI42
aI41
aI-1
aI40
aI38
aI-1
aI35
aI34
aI33
aI32
aI31
aI30
aI-1
aI-1
aI-1
aI-1
aI25
aI24
aI23
aI22
aI21
aI20
aI-1
aI-1
aI18
aI-1
aI17
aI15
aI14
aI13
aI12
aI11
aI10
aI-1
aI-1
aI-1
aI-1
aI-1
aI-1
aI-1
aI2
aI1
aI0
aa(lp27
I2
aI2
aI2
aI2
aI2
aI2
aI2
aI2
aI2
aI2
aI2
aI2
aI2
aI2
aI2
aI2
aI1
aI2
aI2
aI1
aI2
aI2
aI2
aI2
aI2
aI2
aI2
aI2
aI2
aI2
aI2
aI2
aI2
aI2
aI2
aI2
aI1
aI1
aI2
aI1
aI2
aI2
aI2
aI2
aI2
aI2
aI2
aI2
aI2
aI2
aI2
aI2
aI2
aI2
aI2
aI2
aI2
aaa(lp28
(lp29
I3
aI3
aI4
aI1
aI1
aI1
aI1
aI1
aI1
aI1
aI3
aI1
aI2
aI1
aI2
aI3
aI4
aI4
aI4
aI3
aI4
aI1
aI2
aI1
aI2
aI3
aI1
aI1
aI1
aI1
aI4
aI1
aI2
aI1
aI2
aI3
aI3
aI1
aI3
aI4
aI3
aI4
aI1
aI2
aI1
aI2
aI4
aI1
aI1
aI1
aI1
aI1
aI1
aI1
aI3
aI4
aI4
aa(lp30
I2
aI2
aI2
aI1
aI1
aI1
aI1
aI1
aI1
aI1
aI2
aI2
aI2
aI2
aI2
aI2
aI2
aI2
aI1
aI1
aI2
aI2
aI2
aI2
aI2
aI2
aI1
aI1
aI1
aI1
aI3
aI3
aI3
aI3
aI3
aI3
aI1
aI1
aI3
aI1
aI3
aI3
aI3
aI3
aI3
aI3
aI3
aI1
aI1
aI1
aI1
aI1
aI1
aI1
aI3
aI3
aI3
aa(lp31
I2
aI2
aI2
aI1
aI1
aI1
aI1
aI1
aI1
aI1
aI2
aI2
aI2
aI2
aI2
aI2
aI1
aI2
aI2
aI1
aI2
aI2
aI2
aI2
aI2
aI2
aI1
aI1
aI1
aI1
aI3
aI3
aI3
aI3
aI3
aI3
aI1
aI1
aI3
aI1
aI3
aI3
aI3
aI3
aI3
aI3
aI3
aI1
aI1
aI1
aI1
aI1
aI1
aI1
aI3
aI3
aI3
aa(lp32
F-18.299999237060547
aF0.0
aF0.0
aF0.0
aF0.0
aF0.0
aF0.0
aF0.0
aF0.0
aF0.0
aF0.0
aF0.0
aF0.0
aF0.0
aF0.0
aF0.0
aF0.0
aF0.0
aF0.0
aF0.0
aF0.0
aF0.0
aF0.0
aF0.0
aF0.0
aF0.0
aF0.0
aF0.0
aF0.0
aF0.0
aF0.0
aF0.0
aF0.0
aF0.0
aF0.0
aF0.0
aF0.0
aF0.0
aF0.0
aF0.0
aF0.0
aF0.0
aF0.0
aF0.0
aF0.0
aF0.0
aF0.0
aF0.0
aF0.0
aF0.0
aF0.0
aF0.0
aF0.0
aF0.0
aF0.0
aF0.0
aF0.0
aa(lp33
F-12.899999618530273
aF0.0
aF0.0
aF0.0
aF0.0
aF0.0
aF0.0
aF0.0
aF0.0
aF0.0
aF0.0
aF0.0
aF0.0
aF0.0
aF0.0
aF0.0
aF0.0
aF0.0
aF0.0
aF0.0
aF0.0
aF0.0
aF0.0
aF0.0
aF0.0
aF0.0
aF0.0
aF0.0
aF0.0
aF0.0
aF0.0
aF0.0
aF0.0
aF0.0
aF0.0
aF0.0
aF0.0
aF0.0
aF0.0
aF0.0
aF0.0
aF0.0
aF0.0
aF0.0
aF0.0
aF0.0
aF0.0
aF0.0
aF0.0
aF0.0
aF0.0
aF0.0
aF0.0
aF0.0
aF0.0
aF0.0
aF0.0
aa(lp34
I56
aI55
aI54
aI-1
aI-1
aI-1
aI-1
aI-1
aI-1
aI-1
aI46
aI45
aI44
aI43
aI42
aI41
aI40
aI38
aI-1
aI-1
aI35
aI34
aI33
aI32
aI31
aI30
aI-1
aI-1
aI-1
aI-1
aI25
aI24
aI23
aI22
aI21
aI20
aI-1
aI-1
aI17
aI-1
aI16
aI15
aI14
aI13
aI12
aI11
aI10
aI-1
aI-1
aI-1
aI-1
aI-1
aI-1
aI-1
aI2
aI1
aI0
aa(lp35
I56
aI55
aI54
aI-1
aI-1
aI-1
aI-1
aI-1
aI-1
aI-1
aI46
aI45
aI44
aI43
aI42
aI41
aI-1
aI40
aI38
aI-1
aI35
aI34
aI33
aI32
aI31
aI30
aI-1
aI-1
aI-1
aI-1
aI25
aI24
aI23
aI22
aI21
aI20
aI-1
aI-1
aI18
aI-1
aI17
aI15
aI14
aI13
aI12
aI11
aI10
aI-1
aI-1
aI-1
aI-1
aI-1
aI-1
aI-1
aI2
aI1
aI0
aa(lp36
I2
aI2
aI2
aI2
aI2
aI2
aI2
aI2
aI2
aI2
aI2
aI2
aI2
aI2
aI2
aI2
aI1
aI2
aI2
aI1
aI2
aI2
aI2
aI2
aI2
aI2
aI2
aI2
aI2
aI2
aI2
aI2
aI2
aI2
aI2
aI2
aI1
aI1
aI2
aI1
aI2
aI2
aI2
aI2
aI2
aI2
aI2
aI2
aI2
aI2
aI2
aI2
aI2
aI2
aI2
aI2
aI2
aaa(lp37
(lp38
I3
aI3
aI4
aI1
aI1
aI1
aI1
aI1
aI1
aI1
aI3
aI1
aI2
aI1
aI2
aI3
aI3
aI4
aI4
aI3
aI4
aI1
aI2
aI1
aI2
aI3
aI1
aI1
aI1
aI1
aI4
aI1
aI2
aI1
aI2
aI3
aI3
aI1
aI3
aI4
aI3
aI4
aI1
aI2
aI1
aI2
aI4
aI1
aI1
aI1
aI1
aI1
aI1
aI1
aI3
aI4
aI4
aa(lp39
I2
aI2
aI2
aI1
aI1
aI1
aI1
aI1
aI1
aI1
aI2
aI2
aI2
aI2
aI2
aI2
aI2
aI2
aI1
aI1
aI2
aI2
aI2
aI2
aI2
aI2
aI1
aI1
aI1
aI1
aI3
aI3
aI3
aI3
aI3
aI3
aI1
aI1
aI3
aI3
aI1
aI3
aI3
aI3
aI3
aI3
aI3
aI1
aI1
aI1
aI1
aI1
aI1
aI1
aI3
aI3
aI3
aa(lp40
I2
aI2
aI2
aI1
aI1
aI1
aI1
aI1
aI1
aI1
aI2
aI2
aI2
aI2
aI2
aI2
aI1
aI2
aI2
aI1
aI2
aI2
aI2
aI2
aI2
aI2
aI1
aI1
aI1
aI1
aI3
aI3
aI3
aI3
aI3
aI3
aI1
aI1
aI3
aI1
aI3
aI3
aI3
aI3
aI3
aI3
aI3
aI1
aI1
aI1
aI1
aI1
aI1
aI1
aI3
aI3
aI3
aa(lp41
F-18.299999237060547
aF0.0
aF0.0
aF0.0
aF0.0
aF0.0
aF0.0
aF0.0
aF0.0
aF0.0
aF0.0
aF0.0
aF0.0
aF0.0
aF0.0
aF0.0
aF0.0
aF0.0
aF0.0
aF0.0
aF0.0
aF0.0
aF0.0
aF0.0
aF0.0
aF0.0
aF0.0
aF0.0
aF0.0
aF0.0
aF0.0
aF0.0
aF0.0
aF0.0
aF0.0
aF0.0
aF0.0
aF0.0
aF0.0
aF0.0
aF0.0
aF0.0
aF0.0
aF0.0
aF0.0
aF0.0
aF0.0
aF0.0
aF0.0
aF0.0
aF0.0
aF0.0
aF0.0
aF0.0
aF0.0
aF0.0
aF0.0
aa(lp42
F-12.899999618530273
aF0.0
aF0.0
aF0.0
aF0.0
aF0.0
aF0.0
aF0.0
aF0.0
aF0.0
aF0.0
aF0.0
aF0.0
aF0.0
aF0.0
aF0.0
aF0.0
aF0.0
aF0.0
aF0.0
aF0.0
aF0.0
aF0.0
aF0.0
aF0.0
aF0.0
aF0.0
aF0.0
aF0.0
aF0.0
aF0.0
aF0.0
aF0.0
aF0.0
aF0.0
aF0.0
aF0.0
aF0.0
aF0.0
aF0.0
aF0.0
aF0.0
aF0.0
aF0.0
aF0.0
aF0.0
aF0.0
aF0.0
aF0.0
aF0.0
aF0.0
aF0.0
aF0.0
aF0.0
aF0.0
aF0.0
aF0.0
aa(lp43
I56
aI55
aI54
aI-1
aI-1
aI-1
aI-1
aI-1
aI-1
aI-1
aI46
aI45
aI44
aI43
aI42
aI41
aI39
aI38
aI-1
aI-1
aI35
aI34
aI33
aI32
aI31
aI30
aI-1
aI-1
aI-1
aI-1
aI25
aI24
aI23
aI22
aI21
aI20
aI-1
aI-1
aI17
aI16
aI-1
aI15
aI14
aI13
aI12
aI11
aI10
aI-1
aI-1
aI-1
aI-1
aI-1
aI-1
aI-1
aI2
aI1
aI0
aa(lp44
I56
aI55
aI54
aI-1
aI-1
aI-1
aI-1
aI-1
aI-1
aI-1
aI46
aI45
aI44
aI43
aI42
aI41
aI-1
aI40
aI38
aI-1
aI35
aI34
aI33
aI32
aI31
aI30
aI-1
aI-1
aI-1
aI-1
aI25
aI24
aI23
aI22
aI21
aI20
aI-1
aI-1
aI18
aI-1
aI17
aI15
aI14
aI13
aI12
aI11
aI10
aI-1
aI-1
aI-1
aI-1
aI-1
aI-1
aI-1
aI2
aI1
aI0
aa(lp45
I2
aI2
aI2
aI2
aI2
aI2
aI2
aI2
aI2
aI2
aI2
aI2
aI2
aI2
aI2
aI2
aI1
aI2
aI2
aI1
aI2
aI2
aI2
aI2
aI2
aI2
aI2
aI2
aI2
aI2
aI2
aI2
aI2
aI2
aI2
aI2
aI1
aI1
aI2
aI1
aI2
aI2
aI2
aI2
aI2
aI2
aI2
aI2
aI2
aI2
aI2
aI2
aI2
aI2
aI2
aI2
aI2
aaa(lp46
(lp47
I3
aI3
aI4
aI1
aI1
aI1
aI1
aI1
aI1
aI1
aI3
aI1
aI2
aI1
aI2
aI3
aI2
aI4
aI4
aI3
aI4
aI1
aI2
aI1
aI2
aI3
aI1
aI1
aI1
aI1
aI4
aI1
aI2
aI1
aI2
aI3
aI3
aI1
aI3
aI4
aI3
aI4
aI1
aI2
aI1
aI2
aI4
aI1
aI1
aI1
aI1
aI1
aI1
aI1
aI3
aI4
aI4
aa(lp48
I2
aI2
aI2
aI1
aI1
aI1
aI1
aI1
aI1
aI1
aI2
aI2
aI2
aI2
aI2
aI2
aI2
aI2
aI1
aI1
aI2
aI2
aI2
aI2
aI2
aI2
aI1
aI1
aI1
aI1
aI3
aI3
aI3
aI3
aI3
aI3
aI1
aI1
aI3
aI1
aI3
aI3
aI3
aI3
aI3
aI3
aI3
aI1
aI1
aI1
aI1
aI1
aI1
aI1
aI3
aI3
aI3
aa(lp49
I2
aI2
aI2
aI1
aI1
aI1
aI1
aI1
aI1
aI1
aI2
aI2
aI2
aI2
aI2
aI2
aI1
aI2
aI2
aI1
aI2
aI2
aI2
aI2
aI2
aI2
aI1
aI1
aI1
aI1
aI3
aI3
aI3
aI3
aI3
aI3
aI1
aI1
aI3
aI1
aI3
aI3
aI3
aI3
aI3
aI3
aI3
aI1
aI1
aI1
aI1
aI1
aI1
aI1
aI3
aI3
aI3
aa(lp50
F-15.600000381469727
aF0.0
aF0.0
aF0.0
aF0.0
aF0.0
aF0.0
aF0.0
aF0.0
aF0.0
aF0.0
aF0.0
aF0.0
aF0.0
aF0.0
aF0.0
aF0.0
aF0.0
aF0.0
aF0.0
aF0.0
aF0.0
aF0.0
aF0.0
aF0.0
aF0.0
aF0.0
aF0.0
aF0.0
aF0.0
aF0.0
aF0.0
aF0.0
aF0.0
aF0.0
aF0.0
aF0.0
aF0.0
aF0.0
aF0.0
aF0.0
aF0.0
aF0.0
aF0.0
aF0.0
aF0.0
aF0.0
aF0.0
aF0.0
aF0.0
aF0.0
aF0.0
aF0.0
aF0.0
aF0.0
aF0.0
aF0.0
aa(lp51
F-12.899999618530273
aF0.0
aF0.0
aF0.0
aF0.0
aF0.0
aF0.0
aF0.0
aF0.0
aF0.0
aF0.0
aF0.0
aF0.0
aF0.0
aF0.0
aF0.0
aF0.0
aF0.0
aF0.0
aF0.0
aF0.0
aF0.0
aF0.0
aF0.0
aF0.0
aF0.0
aF0.0
aF0.0
aF0.0
aF0.0
aF0.0
aF0.0
aF0.0
aF0.0
aF0.0
aF0.0
aF0.0
aF0.0
aF0.0
aF0.0
aF0.0
aF0.0
aF0.0
aF0.0
aF0.0
aF0.0
aF0.0
aF0.0
aF0.0
aF0.0
aF0.0
aF0.0
aF0.0
aF0.0
aF0.0
aF0.0
aF0.0
aa(lp52
I56
aI55
aI54
aI-1
aI-1
aI-1
aI-1
aI-1
aI-1
aI-1
aI46
aI45
aI44
aI43
aI42
aI41
aI40
aI38
aI-1
aI-1
aI35
aI34
aI33
aI32
aI31
aI30
aI-1
aI-1
aI-1
aI-1
aI25
aI24
aI23
aI22
aI21
aI20
aI-1
aI-1
aI17
aI-1
aI16
aI15
aI14
aI13
aI12
aI11
aI10
aI-1
aI-1
aI-1
aI-1
aI-1
aI-1
aI-1
aI2
aI1
aI0
aa(lp53
I56
aI55
aI54
aI-1
aI-1
aI-1
aI-1
aI-1
aI-1
aI-1
aI46
aI45
aI44
aI43
aI42
aI41
aI-1
aI40
aI38
aI-1
aI35
aI34
aI33
aI32
aI31
aI30
aI-1
aI-1
aI-1
aI-1
aI25
aI24
aI23
aI22
aI21
aI20
aI-1
aI-1
aI18
aI-1
aI17
aI15
aI14
aI13
aI12
aI11
aI10
aI-1
aI-1
aI-1
aI-1
aI-1
aI-1
aI-1
aI2
aI1
aI0
aa(lp54
I2
aI2
aI2
aI2
aI2
aI2
aI2
aI2
aI2
aI2
aI2
aI2
aI2
aI2
aI2
aI2
aI1
aI2
aI2
aI1
aI2
aI2
aI2
aI2
aI2
aI2
aI2
aI2
aI2
aI2
aI2
aI2
aI2
aI2
aI2
aI2
aI1
aI1
aI2
aI1
aI2
aI2
aI2
aI2
aI2
aI2
aI2
aI2
aI2
aI2
aI2
aI2
aI2
aI2
aI2
aI2
aI2
aaa.