(lp0
(lp1
(lp2
I1
aI1
aI1
aI1
aI1
aI1
aI1
aI1
aI1
aI1
aI1
aa(lp3
I1
aI1
aI1
aI1
aI1
aI1
aI1
aI1
aI1
aI1
aI1
aa(lp4
I2
aI2
aI2
aI1
aI1
aI1
aI1
aI1
aI3
aI3
aI3
aa(lp5
F0.0
aF0.0
aF0.0
aF0.0
aF0.0
aF0.0
aF0.0
aF0.0
aF0.0
aF0.0
aF0.0
aa(lp6
F9.0
aF0.0
aF0.0
aF0.0
aF0.0
aF0.0
aF0.0
aF0.0
aF0.0
aF0.0
aF0.0
aa(lp7
I-1
aI-1
aI-1
aI-1
aI-1
aI-1
aI-1
aI-1
aI-1
aI-1
aI-1
aa(lp8
I10
aI9
aI8
aI-1
aI-1
aI-1
aI-1
aI-1
aI2
aI1
aI0
aa(lp9
I1
aI1
aI1
aI1
aI1
aI1
aI1
aI1
aI1
aI1
aI1
aaa(lp10
(lp11
I2
aI1
aI1
aI1
aI1
aI1
aI1
aI1
aI1
aI1
aI1
aa(lp12
I1
aI1
aI1
aI1
aI1
aI1
aI1
aI1
aI1
aI1
aI1
aa(lp13
I2
aI2
aI2
aI1
aI1
aI1
aI1
aI1
aI3
aI3
aI3
aa(lp14
F0.0
aF0.0
aF0.0
aF0.0
aF0.0
aF0.0
aF0.0
aF0.0
aF0.0
aF0.0
aF0.0
aa(lp15
F6.800000190734863
aF0.0
aF0.0
aF0.0
aF0.0
aF0.0
aF0.0
aF0.0
aF0.0
aF0.0
aF0.0
aa(lp16
I-1
aI-1
aI-1
aI-1
aI-1
aI-1
aI-1
aI-1
aI-1
aI-1
aI-1
aa(lp17
I10
aI9
aI8
aI-1
aI-1
aI-1
aI-1
aI-1
aI2
aI1
aI0
aa(lp18
I1
aI1
aI1
aI1
aI1
aI1
aI1
aI1
aI1
aI1
aI1
aaa(lp19
(lp20
I2
aI2
aI1
aI1
aI1
aI1
aI1
aI1
aI1
aI1
aI1
aa(lp21
I1
aI1
aI1
aI1
aI1
aI1
aI1
aI1
aI1
aI1
aI1
aa(lp22
I2
aI2
aI2
aI1
aI1
aI1
aI1
aI1
aI3
aI3
aI3
aa(lp23
F0.0
aF0.0
aF0.0
aF0.0
aF0.0
aF0.0
aF0.0
aF0.0
aF0.0
aF0.0
aF0.0
aa(lp24
F4.599999904632568
aF0.0
aF0.0
aF0.0
aF0.0
aF0.0
aF0.0
aF0.0
aF0.0
aF0.0
aF0.0
aa(lp25
I-1
aI-1
aI-1
aI-1
aI-1
aI-1
aI-1
aI-1
aI-1
aI-1
aI-1
aa(lp26
I10
aI9
aI8
aI-1
aI-1
aI-1
aI-1
aI-1
aI2
aI1
aI0
aa(lp27
I1
aI1
aI1
aI1
aI1
aI1
aI1
aI1
aI1
aI1
aI1
aaa(lp28
(lp29
I2
aI2
aI2
aI1
aI1
aI1
aI1
aI1
aI1
aI1
aI1
aa(lp30
I1
aI1
aI1
aI1
aI1
aI1
aI1
aI1
aI1
aI1
aI1
aa(lp31
I2
aI2
aI2
aI1
aI1
aI1
aI1
aI1
aI3
aI3
aI3
aa(lp32
F0.0
aF0.0
aF0.0
aF0.0
aF0.0
aF0.0
aF0.0
aF0.0
aF0.0
aF0.0
aF0.0
aa(lp33
F3.9000000953674316
aF0.0
aF0.0
aF0.0
aF0.0
aF0.0
aF0.0
aF0.0
aF0.0
aF0.0
aF0.0
aa(lp34
I-1
aI-1
aI-1
aI-1
aI-1
aI-1
aI-1
aI-1
aI-1
aI-1
aI-1
aa(lp35
I10
aI9
aI8
aI-1
aI-1
aI-1
aI-1
aI-1
aI2
aI1
aI0
aa(lp36
I1
aI1
aI1
aI1
aI1
aI1
aI1
aI1
aI1
aI1
aI1
aaa(lp37
(lp38
I1
aI2
aI2
aI1
aI1
aI1
aI1
aI1
aI1
aI1
aI1
aa(lp39
I1
aI1
aI1
aI1
aI1
aI1
aI1
aI1
aI1
aI1
aI1
aa(lp40
I2
aI2
aI2
aI1
aI1
aI1
aI1
aI1
aI3
aI3
aI3
aa(lp41
F0.0
aF0.0
aF0.0
aF0.0
aF0.0
aF0.0
aF0.0
aF0.0
aF0.0
aF0.0
aF0.0
aa(lp42
F4.199999809265137
aF0.0
aF0.0
aF0.0
aF0.0
aF0.0
aF0.0
aF0.0
aF0.0
aF0.0
aF0.0
aa(lp43
I-1
aI-1
aI-1
aI-1
aI-1
aI-1
aI-1
aI-1
aI-1
aI-1
aI-1
aa(lp44
I10
aI9
aI8
aI-1
aI-1
aI-1
aI-1
aI-1
aI2
aI1
aI0
aa(lp45
I1
aI1
aI1
aI1
aI1
aI1
aI1
aI1
aI1
aI1
aI1
aaa(lp46
(lp47
I1
aI2
aI2
aI1
aI1
aI1
aI1
aI1
aI1
aI1
aI2
aa(lp48
I1
aI1
aI1
aI1
aI1
aI1
aI1
aI1
aI1
aI1
aI1
aa(lp49
I2
aI2
aI2
aI1
aI1
aI1
aI1
aI1
aI3
aI3
aI3
aa(lp50
F0.0
aF0.0
aF0.0
aF0.0
aF0.0
aF0.0
aF0.0
aF0.0
aF0.0
aF0.0
aF0.0
aa(lp51
F3.700000047683716
aF0.0
aF0.0
aF0.0
aF0.0
aF0.0
aF0.0
aF0.0
aF0.0
aF0.0
aF0.0
aa(lp52
I-1
aI-1
aI-1
aI-1
aI-1
aI-1
aI-1
aI-1
aI-1
aI-1
aI-1
aa(lp53
I10
aI9
aI8
aI-1
aI-1
aI-1
aI-1
aI-1
aI2
aI1
aI0
aa(lp54
I1
aI1
aI1
aI1
aI1
aI1
aI1
aI1
aI1
aI1
aI1
aaa(lp55
(lp56
I1
aI2
aI1
aI1
aI1
aI1
aI1
aI1
aI1
aI1
aI2
aa(lp57
I1
aI1
aI1
aI1
aI1
aI1
aI1
aI1
aI1
aI1
aI1
aa(lp58
I2
aI2
aI2
aI1
aI1
aI1
aI1
aI1
aI3
aI3
aI3
aa(lp59
F0.0
aF0.0
aF0.0
aF0.0
aF0.0
aF0.0
aF0.0
aF0.0
aF0.0
aF0.0
aF0.0
aa(lp60
F4.400000095367432
aF0.0
aF0.0
aF0.0
aF0.0
aF0.0
aF0.0
aF0.0
aF0.0
aF0.0
aF0.0
aa(lp61
I-1
aI-1
aI-1
aI-1
aI-1
aI-1
aI-1
aI-1
aI-1
aI-1
aI-1
aa(lp62
I10
aI9
aI8
aI-1
aI-1
aI-1
aI-1
aI-1
aI2
aI1
aI0
aa(lp63
I1
aI1
aI1
aI1
aI1
aI1
aI1
aI1
aI1
aI1
aI1
aaa(lp64
(lp65
I1
aI2
aI1
aI1
aI1
aI1
aI1
aI1
aI2
aI1
aI2
aa(lp66
I1
aI1
aI1
aI1
aI1
aI1
aI1
aI1
aI1
aI1
aI1
aa(lp67
I2
aI2
aI2
aI1
aI1
aI1
aI1
aI1
aI3
aI3
aI3
aa(lp68
F0.0
aF0.0
aF0.0
aF0.0
aF0.0
aF0.0
aF0.0
aF0.0
aF0.0
aF0.0
aF0.0
aa(lp69
F3.5
aF0.0
aF0.0
aF0.0
aF0.0
aF0.0
aF0.0
aF0.0
aF0.0
aF0.0
aF0.0
aa(lp70
I-1
aI-1
aI-1
aI-1
aI-1
aI-1
aI-1
aI-1
aI-1
aI-1
aI-1
aa(lp71
I10
aI9
aI8
aI-1
aI-1
aI-1
aI-1
aI-1
aI2
aI1
aI0
aa(lp72
I1
aI1
aI1
aI1
aI1
aI1
aI1
aI1
aI1
aI1
aI1
aaa(lp73
(lp74
I1
aI2
aI1
aI3
aI1
aI1
aI1
aI1
aI2
aI1
aI2
aa(lp75
I1
aI1
aI1
aI1
aI1
aI1
aI1
aI1
aI1
aI1
aI1
aa(lp76
I2
aI2
aI2
aI1
aI1
aI1
aI1
aI1
aI3
aI3
aI3
aa(lp77
F0.0
aF0.0
aF0.0
aF0.0
aF0.0
aF0.0
aF0.0
aF0.0
aF0.0
aF0.0
aF0.0
aa(lp78
F2.5999999046325684
aF0.0
aF0.0
aF0.0
aF0.0
aF0.0
aF0.0
aF0.0
aF0.0
aF0.0
aF0.0
aa(lp79
I-1
aI-1
aI-1
aI-1
aI-1
aI-1
aI-1
aI-1
aI-1
aI-1
aI-1
aa(lp80
I10
aI9
aI8
aI-1
aI-1
aI-1
aI-1
aI-1
aI2
aI1
aI0
aa(lp81
I1
aI1
aI1
aI1
aI1
aI1
aI1
aI1
aI1
aI1
aI1
aaa(lp82
(lp83
I1
aI2
aI1
aI3
aI1
aI1
aI1
aI3
aI2
aI1
aI2
aa(lp84
I1
aI1
aI1
aI1
aI1
aI1
aI1
aI1
aI1
aI1
aI1
aa(lp85
I2
aI2
aI2
aI1
aI1
aI1
aI1
aI1
aI3
aI3
aI3
aa(lp86
F0.0
aF0.0
aF0.0
aF0.0
aF0.0
aF0.0
aF0.0
aF0.0
aF0.0
aF0.0
aF0.0
aa(lp87
F2.700000047683716
aF0.0
aF0.0
aF0.0
aF0.0
aF0.0
aF0.0
aF0.0
aF0.0
aF0.0
aF0.0
aa(lp88
I-1
aI-1
aI-1
aI-1
aI-1
aI-1
aI-1
aI-1
aI-1
aI-1
aI-1
aa(lp89
I10
aI9
aI8
aI-1
aI-1
aI-1
aI-1
aI-1
aI2
aI1
aI0
aa(lp90
I1
aI1
aI1
aI1
aI1
aI1
aI1
aI1
aI1
aI1
aI1
aaa(lp91
(lp92
I1
aI2
aI1
aI3
aI1
aI1
aI1
aI1
aI2
aI1
aI2
aa(lp93
I1
aI1
aI1
aI1
aI1
aI1
aI1
aI1
aI1
aI1
aI1
aa(lp94
I2
aI2
aI2
aI1
aI1
aI1
aI1
aI1
aI3
aI3
aI3
aa(lp95
F0.0
aF0.0
aF0.0
aF0.0
aF0.0
aF0.0
aF0.0
aF0.0
aF0.0
aF0.0
aF0.0
aa(lp96
F2.5999999046325684
aF0.0
aF0.0
aF0.0
aF0.0
aF0.0
aF0.0
aF0.0
aF0.0
aF0.0
aF0.0
aa(lp97
I-1
aI-1
aI-1
aI-1
aI-1
aI-1
aI-1
aI-1
aI-1
aI-1
aI-1
aa(lp98
I10
aI9
aI8
aI-1
aI-1
aI-1
aI-1
aI-1
aI2
aI1
aI0
aa(lp99
I1
aI1
aI1
aI1
aI1
aI1
aI1
aI1
aI1
aI1
aI1
aaa(lp100
(lp101
I4
aI2
aI1
aI3
aI1
aI1
aI1
aI1
aI2
aI1
aI2
aa(lp102
I1
aI1
aI1
aI1
aI1
aI1
aI1
aI1
aI1
aI1
aI1
aa(lp103
I2
aI2
aI2
aI1
aI1
aI1
aI1
aI1
aI3
aI3
aI3
aa(lp104
F0.0
aF0.0
aF0.0
aF0.0
aF0.0
aF0.0
aF0.0
aF0.0
aF0.0
aF0.0
aF0.0
aa(lp105
F3.0999999046325684
aF0.0
aF0.0
aF0.0
aF0.0
aF0.0
aF0.0
aF0.0
aF0.0
aF0.0
aF0.0
aa(lp106
I-1
aI-1
aI-1
aI-1
aI-1
aI-1
aI-1
aI-1
aI-1
aI-1
aI-1
aa(lp107
I10
aI9
aI8
aI-1
aI-1
aI-1
aI-1
aI-1
aI2
aI1
aI0
aa(lp108
I1
aI1
aI1
aI1
aI1
aI1
aI1
aI1
aI1
aI1
aI1
aaa(lp109
(lp110
I4
aI2
aI1
aI3
aI1
aI1
aI1
aI1
aI2
aI1
aI3
aa(lp111
I1
aI1
aI1
aI1
aI1
aI1
aI1
aI1
aI1
aI1
aI1
aa(lp112
I2
aI2
aI2
aI1
aI1
aI1
aI1
aI1
aI3
aI3
aI3
aa(lp113
F0.0
aF0.0
aF0.0
aF0.0
aF0.0
aF0.0
aF0.0
aF0.0
aF0.0
aF0.0
aF0.0
aa(lp114
F1.100000023841858
aF0.0
aF0.0
aF0.0
aF0.0
aF0.0
aF0.0
aF0.0
aF0.0
aF0.0
aF0.0
aa(lp115
I-1
aI-1
aI-1
aI-1
aI-1
aI-1
aI-1
aI-1
aI-1
aI-1
aI-1
aa(lp116
I10
aI9
aI8
aI-1
aI-1
aI-1
aI-1
aI-1
aI2
aI1
aI0
aa(lp117
I1
aI1
aI1
aI1
aI1
aI1
aI1
aI1
aI1
aI1
aI1
aaa(lp118
(lp119
I3
aI2
aI1
aI3
aI1
aI1
aI1
aI1
aI2
aI1
aI3
aa(lp120
I1
aI1
aI1
aI1
aI1
aI1
aI1
aI1
aI1
aI1
aI1
aa(lp121
I2
aI2
aI2
aI1
aI1
aI1
aI1
aI1
aI3
aI3
aI3
aa(lp122
F0.0
aF0.0
aF0.0
aF0.0
aF0.0
aF0.0
aF0.0
aF0.0
aF0.0
aF0.0
aF0.0
aa(lp123
F3.0999999046325684
aF0.0
aF0.0
aF0.0
aF0.0
aF0.0
aF0.0
aF0.0
aF0.0
aF0.0
aF0.0
aa(lp124
I-1
aI-1
aI-1
aI-1
aI-1
aI-1
aI-1
aI-1
aI-1
aI-1
aI-1
aa(lp125
I10
aI9
aI8
aI-1
aI-1
aI-1
aI-1
aI-1
aI2
aI1
aI0
aa(lp126
I1
aI1
aI1
aI1
aI1
aI1
aI1
aI1
aI1
aI1
aI1
aaa(lp127
(lp128
I3
aI2
aI1
aI3
aI1
aI1
aI1
aI1
aI2
aI1
aI4
aa(lp129
I1
aI1
aI1
aI1
aI1
aI1
aI1
aI1
aI1
aI1
aI1
aa(lp130
I2
aI2
aI2
aI1
aI1
aI1
aI1
aI1
aI3
aI3
aI3
aa(lp131
F0.0
aF0.0
aF0.0
aF0.0
aF0.0
aF0.0
aF0.0
aF0.0
aF0.0
aF0.0
aF0.0
aa(lp132
F1.0
aF0.0
aF0.0
aF0.0
aF0.0
aF0.0
aF0.0
aF0.0
aF0.0
aF0.0
aF0.0
aa(lp133
I-1
aI-1
aI-1
aI-1
aI-1
aI-1
aI-1
aI-1
aI-1
aI-1
aI-1
aa(lp134
I10
aI9
aI8
aI-1
aI-1
aI-1
aI-1
aI-1
aI2
aI1
aI0
aa(lp135
I1
aI1
aI1
aI1
aI1
aI1
aI1
aI1
aI1
aI1
aI1
aaa(lp136
(lp137
I3
aI2
aI3
aI3
aI1
aI1
aI1
aI1
aI2
aI1
aI4
aa(lp138
I1
aI1
aI1
aI1
aI1
aI1
aI1
aI1
aI1
aI1
aI1
aa(lp139
I2
aI2
aI2
aI1
aI1
aI1
aI1
aI1
aI3
aI3
aI3
aa(lp140
F0.0
aF0.0
aF0.0
aF0.0
aF0.0
aF0.0
aF0.0
aF0.0
aF0.0
aF0.0
aF0.0
aa(lp141
F1.5
aF0.0
aF0.0
aF0.0
aF0.0
aF0.0
aF0.0
aF0.0
aF0.0
aF0.0
aF0.0
aa(lp142
I-1
aI-1
aI-1
aI-1
aI-1
aI-1
aI-1
aI-1
aI-1
aI-1
aI-1
aa(lp143
I10
aI9
aI8
aI-1
aI-1
aI-1
aI-1
aI-1
aI2
aI1
aI0
aa(lp144
I1
aI1
aI1
aI1
aI1
aI1
aI1
aI1
aI1
aI1
aI1
aaa(lp145
(lp146
I3
aI2
aI3
aI3
aI1
aI1
aI1
aI1
aI4
aI1
aI4
aa(lp147
I2
aI2
aI2
aI1
aI1
aI1
aI1
aI1
aI3
aI3
aI3
aa(lp148
I2
aI2
aI2
aI1
aI1
aI1
aI1
aI1
aI3
aI3
aI3
aa(lp149
F-1.100000023841858
aF0.0
aF0.0
aF0.0
aF0.0
aF0.0
aF0.0
aF0.0
aF0.0
aF0.0
aF0.0
aa(lp150
F-1.100000023841858
aF0.0
aF0.0
aF0.0
aF0.0
aF0.0
aF0.0
aF0.0
aF0.0
aF0.0
aF0.0
aa(lp151
I10
aI9
aI8
aI-1
aI-1
aI-1
aI-1
aI-1
aI2
aI1
aI0
aa(lp152
I10
aI9
aI8
aI-1
aI-1
aI-1
aI-1
aI-1
aI2
aI1
aI0
aa(lp153
I1
aI1
aI1
aI1
aI1
aI1
aI1
aI1
aI1
aI1
aI1
aaa(lp154
(lp155
I3
aI3
aI3
aI3
aI1
aI1
aI1
aI1
aI4
aI1
aI4
aa(lp156
I1
aI1
aI1
aI1
aI1
aI1
aI1
aI1
aI1
aI1
aI1
aa(lp157
I2
aI2
aI2
aI1
aI1
aI1
aI1
aI1
aI3
aI3
aI3
aa(lp158
F0.0
aF0.0
aF0.0
aF0.0
aF0.0
aF0.0
aF0.0
aF0.0
aF0.0
aF0.0
aF0.0
aa(lp159
F0.30000001192092896
aF0.0
aF0.0
aF0.0
aF0.0
aF0.0
aF0.0
aF0.0
aF0.0
aF0.0
aF0.0
aa(lp160
I-1
aI-1
aI-1
aI-1
aI-1
aI-1
aI-1
aI-1
aI-1
aI-1
aI-1
aa(lp161
I10
aI9
aI8
aI-1
aI-1
aI-1
aI-1
aI-1
aI2
aI1
aI0
aa(lp162
I1
aI1
aI1
aI1
aI1
aI1
aI1
aI1
aI1
aI1
aI1
aaa(lp163
(lp164
I1
aI1
aI1
aI1
aI1
aI1
aI1
aI1
aI1
aI1
aI1
aa(lp165
I1
aI1
aI1
aI1
aI1
aI1
aI1
aI1
aI1
aI1
aI1
aa(lp166
I2
aI2
aI2
aI1
aI1
aI1
aI1
aI1
aI3
aI3
aI3
aa(lp167
F0.0
aF0.0
aF0.0
aF0.0
aF0.0
aF0.0
aF0.0
aF0.0
aF0.0
aF0.0
aF0.0
aa(lp168
F9.0
aF0.0
aF0.0
aF0.0
aF0.0
aF0.0
aF0.0
aF0.0
aF0.0
aF0.0
aF0.0
aa(lp169
I-1
aI-1
aI-1
aI-1
aI-1
aI-1
aI-1
aI-1
aI-1
aI-1
aI-1
aa(lp170
I10
aI9
aI8
aI-1
aI-1
aI-1
aI-1
aI-1
aI2
aI1
aI0
aa(lp171
I1
aI1
aI1
aI1
aI1
aI1
aI1
aI1
aI1
aI1
aI1
aaa(lp172
(lp173
I4
aI1
aI1
aI1
aI1
aI1
aI1
aI1
aI1
aI1
aI1
aa(lp174
I1
aI1
aI1
aI1
aI1
aI1
aI1
aI1
aI1
aI1
aI1
aa(lp175
I2
aI2
aI2
aI1
aI1
aI1
aI1
aI1
aI3
aI3
aI3
aa(lp176
F0.0
aF0.0
aF0.0
aF0.0
aF0.0
aF0.0
aF0.0
aF0.0
aF0.0
aF0.0
aF0.0
aa(lp177
F9.0
aF0.0
aF0.0
aF0.0
aF0.0
aF0.0
aF0.0
aF0.0
aF0.0
aF0.0
aF0.0
aa(lp178
I-1
aI-1
aI-1
aI-1
aI-1
aI-1
aI-1
aI-1
aI-1
aI-1
aI-1
aa(lp179
I10
aI9
aI8
aI-1
aI-1
aI-1
aI-1
aI-1
aI2
aI1
aI0
aa(lp180
I1
aI1
aI1
aI1
aI1
aI1
aI1
aI1
aI1
aI1
aI1
aaa(lp181
(lp182
I4
aI4
aI1
aI1
aI1
aI1
aI1
aI1
aI1
aI1
aI1
aa(lp183
I1
aI1
aI1
aI1
aI1
aI1
aI1
aI1
aI1
aI1
aI1
aa(lp184
I2
aI2
aI2
aI1
aI1
aI1
aI1
aI1
aI3
aI3
aI3
aa(lp185
F0.0
aF0.0
aF0.0
aF0.0
aF0.0
aF0.0
aF0.0
aF0.0
aF0.0
aF0.0
aF0.0
aa(lp186
F9.0
aF0.0
aF0.0
aF0.0
aF0.0
aF0.0
aF0.0
aF0.0
aF0.0
aF0.0
aF0.0
aa(lp187
I-1
aI-1
aI-1
aI-1
aI-1
aI-1
aI-1
aI-1
aI-1
aI-1
aI-1
aa(lp188
I10
aI9
aI8
aI-1
aI-1
aI-1
aI-1
aI-1
aI2
aI1
aI0
aa(lp189
I1
aI1
aI1
aI1
aI1
aI1
aI1
aI1
aI1
aI1
aI1
aaa(lp190
(lp191
I4
aI4
aI4
aI1
aI1
aI1
aI1
aI1
aI1
aI1
aI1
aa(lp192
I1
aI1
aI1
aI1
aI1
aI1
aI1
aI1
aI1
aI1
aI1
aa(lp193
I2
aI2
aI2
aI1
aI1
aI1
aI1
aI1
aI3
aI3
aI3
aa(lp194
F0.0
aF0.0
aF0.0
aF0.0
aF0.0
aF0.0
aF0.0
aF0.0
aF0.0
aF0.0
aF0.0
aa(lp195
F9.0
aF0.0
aF0.0
aF0.0
aF0.0
aF0.0
aF0.0
aF0.0
aF0.0
aF0.0
aF0.0
aa(lp196
I-1
aI-1
aI-1
aI-1
aI-1
aI-1
aI-1
aI-1
aI-1
aI-1
aI-1
aa(lp197
I10
aI9
aI8
aI-1
aI-1
aI-1
aI-1
aI-1
aI2
aI1
aI0
aa(lp198
I1
aI1
aI1
aI1
aI1
aI1
aI1
aI1
aI1
aI1
aI1
aaa(lp199
(lp200
I4
aI4
aI4
aI1
aI1
aI1
aI1
aI1
aI3
aI1
aI1
aa(lp201
I1
aI1
aI1
aI1
aI1
aI1
aI1
aI1
aI1
aI1
aI1
aa(lp202
I2
aI2
aI2
aI1
aI1
aI1
aI1
aI1
aI3
aI3
aI3
aa(lp203
F0.0
aF0.0
aF0.0
aF0.0
aF0.0
aF0.0
aF0.0
aF0.0
aF0.0
aF0.0
aF0.0
aa(lp204
F4.5
aF0.0
aF0.0
aF0.0
aF0.0
aF0.0
aF0.0
aF0.0
aF0.0
aF0.0
aF0.0
aa(lp205
I-1
aI-1
aI-1
aI-1
aI-1
aI-1
aI-1
aI-1
aI-1
aI-1
aI-1
aa(lp206
I10
aI9
aI8
aI-1
aI-1
aI-1
aI-1
aI-1
aI2
aI1
aI0
aa(lp207
I1
aI1
aI1
aI1
aI1
aI1
aI1
aI1
aI1
aI1
aI1
aaa(lp208
(lp209
I4
aI4
aI4
aI1
aI1
aI1
aI1
aI1
aI3
aI3
aI1
aa(lp210
I1
aI2
aI2
aI1
aI1
aI1
aI1
aI1
aI3
aI3
aI1
aa(lp211
I2
aI2
aI2
aI1
aI1
aI1
aI1
aI1
aI3
aI3
aI3
aa(lp212
F-0.6000000238418579
aF0.0
aF0.0
aF0.0
aF0.0
aF0.0
aF0.0
aF0.0
aF0.0
aF0.0
aF0.0
aa(lp213
F-0.10000000149011612
aF0.0
aF0.0
aF0.0
aF0.0
aF0.0
aF0.0
aF0.0
aF0.0
aF0.0
aF0.0
aa(lp214
I-1
aI9
aI8
aI-1
aI-1
aI-1
aI-1
aI-1
aI2
aI1
aI-1
aa(lp215
I10
aI9
aI8
aI-1
aI-1
aI-1
aI-1
aI-1
aI2
aI1
aI0
aa(lp216
I1
aI1
aI1
aI1
aI1
aI1
aI1
aI1
aI1
aI1
aI1
aaa(lp217
(lp218
I4
aI4
aI4
aI1
aI1
aI1
aI1
aI1
aI3
aI3
aI3
aa(lp219
I2
aI2
aI2
aI1
aI1
aI1
aI1
aI1
aI3
aI3
aI3
aa(lp220
I2
aI2
aI2
aI1
aI1
aI1
aI1
aI1
aI3
aI3
aI3
aa(lp221
F-2.4000000953674316
aF0.0
aF0.0
aF0.0
aF0.0
aF0.0
aF0.0
aF0.0
aF0.0
aF0.0
aF0.0
aa(lp222
F-2.4000000953674316
aF0.0
aF0.0
aF0.0
aF0.0
aF0.0
aF0.0
aF0.0
aF0.0
aF0.0
aF0.0
aa(lp223
I10
aI9
aI8
aI-1
aI-1
aI-1
aI-1
aI-1
aI2
aI1
aI0
aa(lp224
I10
aI9
aI8
aI-1
aI-1
aI-1
aI-1
aI-1
aI2
aI1
aI0
aa(lp225
I1
aI1
aI1
aI1
aI1
aI1
aI1
aI1
aI1
aI1
aI1
aaa(lp226
(lp227
I4
aI4
aI4
aI3
aI1
aI1
aI1
aI1
aI3
aI3
aI3
aa(lp228
I2
aI2
aI2
aI1
aI1
aI1
aI1
aI1
aI3
aI3
aI3
aa(lp229
I2
aI2
aI2
aI1
aI1
aI1
aI1
aI1
aI3
aI3
aI3
aa(lp230
F-3.200000047683716
aF0.0
aF0.0
aF0.0
aF0.0
aF0.0
aF0.0
aF0.0
aF0.0
aF0.0
aF0.0
aa(lp231
F-3.200000047683716
aF0.0
aF0.0
aF0.0
aF0.0
aF0.0
aF0.0
aF0.0
aF0.0
aF0.0
aF0.0
aa(lp232
I10
aI9
aI8
aI-1
aI-1
aI-1
aI-1
aI-1
aI2
aI1
aI0
aa(lp233
I10
aI9
aI8
aI-1
aI-1
aI-1
aI-1
aI-1
aI2
aI1
aI0
aa(lp234
I1
aI1
aI1
aI1
aI1
aI1
aI1
aI1
aI1
aI1
aI1
aaa(lp235
(lp236
I4
aI3
aI4
aI3
aI1
aI1
aI1
aI1
aI3
aI3
aI3
aa(lp237
I1
aI1
aI1
aI1
aI1
aI1
aI1
aI1
aI1
aI1
aI1
aa(lp238
I2
aI2
aI2
aI1
aI1
aI1
aI1
aI1
aI3
aI3
aI3
aa(lp239
F0.0
aF0.0
aF0.0
aF0.0
aF0.0
aF0.0
aF0.0
aF0.0
aF0.0
aF0.0
aF0.0
aa(lp240
F0.5
aF0.0
aF0.0
aF0.0
aF0.0
aF0.0
aF0.0
aF0.0
aF0.0
aF0.0
aF0.0
aa(lp241
I-1
aI-1
aI-1
aI-1
aI-1
aI-1
aI-1
aI-1
aI-1
aI-1
aI-1
aa(lp242
I10
aI9
aI8
aI-1
aI-1
aI-1
aI-1
aI-1
aI2
aI1
aI0
aa(lp243
I1
aI1
aI1
aI1
aI1
aI1
aI1
aI1
aI1
aI1
aI1
aaa(lp244
(lp245
I1
aI1
aI1
aI1
aI1
aI1
aI1
aI1
aI1
aI1
aI1
aa(lp246
I1
aI1
aI1
aI1
aI1
aI1
aI1
aI1
aI1
aI1
aI1
aa(lp247
I2
aI2
aI2
aI1
aI1
aI1
aI1
aI1
aI3
aI3
aI3
aa(lp248
F0.0
aF0.0
aF0.0
aF0.0
aF0.0
aF0.0
aF0.0
aF0.0
aF0.0
aF0.0
aF0.0
aa(lp249
F9.0
aF0.0
aF0.0
aF0.0
aF0.0
aF0.0
aF0.0
aF0.0
aF0.0
aF0.0
aF0.0
aa(lp250
I-1
aI-1
aI-1
aI-1
aI-1
aI-1
aI-1
aI-1
aI-1
aI-1
aI-1
aa(lp251
I10
aI9
aI8
aI-1
aI-1
aI-1
aI-1
aI-1
aI2
aI1
aI0
aa(lp252
I1
aI1
aI1
aI1
aI1
aI1
aI1
aI1
aI1
aI1
aI1
aaa(lp253
(lp254
I1
aI2
aI1
aI1
aI1
aI1
aI1
aI1
aI1
aI1
aI1
aa(lp255
I1
aI1
aI1
aI1
aI1
aI1
aI1
aI1
aI1
aI1
aI1
aa(lp256
I2
aI2
aI2
aI1
aI1
aI1
aI1
aI1
aI3
aI3
aI3
aa(lp257
F0.0
aF0.0
aF0.0
aF0.0
aF0.0
aF0.0
aF0.0
aF0.0
aF0.0
aF0.0
aF0.0
aa(lp258
F4.900000095367432
aF0.0
aF0.0
aF0.0
aF0.0
aF0.0
aF0.0
aF0.0
aF0.0
aF0.0
aF0.0
aa(lp259
I-1
aI-1
aI-1
aI-1
aI-1
aI-1
aI-1
aI-1
aI-1
aI-1
aI-1
aa(lp260
I10
aI9
aI8
aI-1
aI-1
aI-1
aI-1
aI-1
aI2
aI1
aI0
aa(lp261
I1
aI1
aI1
aI1
aI1
aI1
aI1
aI1
aI1
aI1
aI1
aaa(lp262
(lp263
I1
aI2
aI1
aI1
aI1
aI1
aI1
aI1
aI1
aI3
aI1
aa(lp264
I1
aI1
aI1
aI1
aI1
aI1
aI1
aI1
aI1
aI1
aI1
aa(lp265
I2
aI2
aI2
aI1
aI1
aI1
aI1
aI1
aI3
aI3
aI3
aa(lp266
F0.0
aF0.0
aF0.0
aF0.0
aF0.0
aF0.0
aF0.0
aF0.0
aF0.0
aF0.0
aF0.0
aa(lp267
F8.0
aF0.0
aF0.0
aF0.0
aF0.0
aF0.0
aF0.0
aF0.0
aF0.0
aF0.0
aF0.0
aa(lp268
I-1
aI-1
aI-1
aI-1
aI-1
aI-1
aI-1
aI-1
aI-1
aI-1
aI-1
aa(lp269
I10
aI9
aI8
aI-1
aI-1
aI-1
aI-1
aI-1
aI2
aI1
aI0
aa(lp270
I1
aI1
aI1
aI1
aI1
aI1
aI1
aI1
aI1
aI1
aI1
aaa(lp271
(lp272
I1
aI2
aI3
aI1
aI1
aI1
aI1
aI1
aI1
aI3
aI1
aa(lp273
I1
aI1
aI1
aI1
aI1
aI1
aI1
aI1
aI1
aI1
aI1
aa(lp274
I2
aI2
aI2
aI1
aI1
aI1
aI1
aI1
aI3
aI3
aI3
aa(lp275
F0.0
aF0.0
aF0.0
aF0.0
aF0.0
aF0.0
aF0.0
aF0.0
aF0.0
aF0.0
aF0.0
aa(lp276
F8.0
aF0.0
aF0.0
aF0.0
aF0.0
aF0.0
aF0.0
aF0.0
aF0.0
aF0.0
aF0.0
aa(lp277
I-1
aI-1
aI-1
aI-1
aI-1
aI-1
aI-1
aI-1
aI-1
aI-1
aI-1
aa(lp278
I10
aI9
aI8
aI-1
aI-1
aI-1
aI-1
aI-1
aI2
aI1
aI0
aa(lp279
I1
aI1
aI1
aI1
aI1
aI1
aI1
aI1
aI1
aI1
aI1
aaa(lp280
(lp281
I1
aI2
aI3
aI1
aI1
aI1
aI1
aI1
aI4
aI3
aI1
aa(lp282
I1
aI1
aI1
aI1
aI1
aI1
aI1
aI1
aI1
aI1
aI1
aa(lp283
I2
aI2
aI2
aI1
aI1
aI1
aI1
aI1
aI3
aI3
aI3
aa(lp284
F0.0
aF0.0
aF0.0
aF0.0
aF0.0
aF0.0
aF0.0
aF0.0
aF0.0
aF0.0
aF0.0
aa(lp285
F5.0
aF0.0
aF0.0
aF0.0
aF0.0
aF0.0
aF0.0
aF0.0
aF0.0
aF0.0
aF0.0
aa(lp286
I-1
aI-1
aI-1
aI-1
aI-1
aI-1
aI-1
aI-1
aI-1
aI-1
aI-1
aa(lp287
I10
aI9
aI8
aI-1
aI-1
aI-1
aI-1
aI-1
aI2
aI1
aI0
aa(lp288
I1
aI1
aI1
aI1
aI1
aI1
aI1
aI1
aI1
aI1
aI1
aaa(lp289
(lp290
I3
aI2
aI3
aI1
aI1
aI1
aI1
aI1
aI4
aI3
aI1
aa(lp291
I1
aI1
aI1
aI1
aI1
aI1
aI1
aI1
aI1
aI1
aI1
aa(lp292
I2
aI2
aI2
aI1
aI1
aI1
aI1
aI1
aI3
aI3
aI3
aa(lp293
F0.0
aF0.0
aF0.0
aF0.0
aF0.0
aF0.0
aF0.0
aF0.0
aF0.0
aF0.0
aF0.0
aa(lp294
F5.0
aF0.0
aF0.0
aF0.0
aF0.0
aF0.0
aF0.0
aF0.0
aF0.0
aF0.0
aF0.0
aa(lp295
I-1
aI-1
aI-1
aI-1
aI-1
aI-1
aI-1
aI-1
aI-1
aI-1
aI-1
aa(lp296
I10
aI9
aI8
aI-1
aI-1
aI-1
aI-1
aI-1
aI2
aI1
aI0
aa(lp297
I1
aI1
aI1
aI1
aI1
aI1
aI1
aI1
aI1
aI1
aI1
aaa(lp298
(lp299
I3
aI2
aI3
aI1
aI1
aI1
aI1
aI1
aI4
aI3
aI4
aa(lp300
I1
aI1
aI1
aI1
aI1
aI1
aI1
aI1
aI1
aI1
aI1
aa(lp301
I2
aI2
aI2
aI1
aI1
aI1
aI1
aI1
aI3
aI3
aI3
aa(lp302
F0.0
aF0.0
aF0.0
aF0.0
aF0.0
aF0.0
aF0.0
aF0.0
aF0.0
aF0.0
aF0.0
aa(lp303
F0.699999988079071
aF0.0
aF0.0
aF0.0
aF0.0
aF0.0
aF0.0
aF0.0
aF0.0
aF0.0
aF0.0
aa(lp304
I-1
aI-1
aI-1
aI-1
aI-1
aI-1
aI-1
aI-1
aI-1
aI-1
aI-1
aa(lp305
I10
aI9
aI8
aI-1
aI-1
aI-1
aI-1
aI-1
aI2
aI1
aI0
aa(lp306
I1
aI1
aI1
aI1
aI1
aI1
aI1
aI1
aI1
aI1
aI1
aaa.