(lp0
(lp1
(lp2
I1
aI1
aI1
aI1
aI1
aI1
aI1
aI2
aI2
aI1
aI2
aI1
aI1
aI1
aI1
aI1
aI1
aI2
aI1
aI2
aI1
aI1
aI2
aI2
aI1
aI1
aI1
aI1
aI1
aa(lp3
I1
aI1
aI1
aI1
aI1
aI2
aI2
aI2
aI2
aI2
aI2
aI2
aI1
aI1
aI1
aI1
aI1
aI3
aI3
aI3
aI3
aI3
aI3
aI3
aI1
aI1
aI1
aI1
aI1
aa(lp4
I1
aI1
aI1
aI1
aI1
aI2
aI2
aI2
aI2
aI2
aI2
aI2
aI2
aI1
aI1
aI1
aI3
aI3
aI3
aI3
aI3
aI3
aI3
aI3
aI1
aI1
aI1
aI1
aI1
aa(lp5
F-1.7000000476837158
aF0.0
aF0.0
aF0.0
aF0.0
aF0.0
aF0.0
aF0.0
aF0.0
aF0.0
aF0.0
aF0.0
aF0.0
aF0.0
aF0.0
aF0.0
aF0.0
aF0.0
aF0.0
aF0.0
aF0.0
aF0.0
aF0.0
aF0.0
aF0.0
aF0.0
aF0.0
aF0.0
aF0.0
aa(lp6
F-1.7999999523162842
aF0.0
aF0.0
aF0.0
aF0.0
aF0.0
aF0.0
aF0.0
aF0.0
aF0.0
aF0.0
aF0.0
aF0.0
aF0.0
aF0.0
aF0.0
aF0.0
aF0.0
aF0.0
aF0.0
aF0.0
aF0.0
aF0.0
aF0.0
aF0.0
aF0.0
aF0.0
aF0.0
aF0.0
aa(lp7
I-1
aI-1
aI-1
aI-1
aI-1
aI23
aI22
aI21
aI20
aI19
aI18
aI17
aI-1
aI-1
aI-1
aI-1
aI-1
aI11
aI10
aI9
aI8
aI7
aI6
aI5
aI-1
aI-1
aI-1
aI-1
aI-1
aa(lp8
I-1
aI-1
aI-1
aI-1
aI-1
aI23
aI22
aI21
aI20
aI19
aI18
aI17
aI16
aI-1
aI-1
aI-1
aI12
aI11
aI10
aI9
aI8
aI7
aI6
aI5
aI-1
aI-1
aI-1
aI-1
aI-1
aa(lp9
I2
aI2
aI2
aI2
aI2
aI2
aI2
aI2
aI2
aI2
aI2
aI1
aI1
aI2
aI2
aI2
aI1
aI2
aI2
aI2
aI2
aI2
aI2
aI2
aI2
aI2
aI2
aI2
aI2
aaa(lp10
(lp11
I1
aI1
aI1
aI1
aI1
aI1
aI1
aI2
aI2
aI1
aI2
aI1
aI1
aI1
aI1
aI1
aI1
aI2
aI1
aI2
aI1
aI1
aI2
aI2
aI1
aI1
aI1
aI1
aI1
aa(lp12
I1
aI1
aI1
aI1
aI1
aI2
aI2
aI2
aI2
aI2
aI2
aI2
aI1
aI1
aI1
aI1
aI1
aI3
aI3
aI3
aI3
aI3
aI3
aI3
aI1
aI1
aI1
aI1
aI1
aa(lp13
I1
aI1
aI1
aI1
aI1
aI2
aI2
aI2
aI2
aI2
aI2
aI2
aI2
aI1
aI1
aI1
aI3
aI3
aI3
aI3
aI3
aI3
aI3
aI3
aI1
aI1
aI1
aI1
aI1
aa(lp14
F-1.7000000476837158
aF0.0
aF0.0
aF0.0
aF0.0
aF0.0
aF0.0
aF0.0
aF0.0
aF0.0
aF0.0
aF0.0
aF0.0
aF0.0
aF0.0
aF0.0
aF0.0
aF0.0
aF0.0
aF0.0
aF0.0
aF0.0
aF0.0
aF0.0
aF0.0
aF0.0
aF0.0
aF0.0
aF0.0
aa(lp15
F-1.7999999523162842
aF0.0
aF0.0
aF0.0
aF0.0
aF0.0
aF0.0
aF0.0
aF0.0
aF0.0
aF0.0
aF0.0
aF0.0
aF0.0
aF0.0
aF0.0
aF0.0
aF0.0
aF0.0
aF0.0
aF0.0
aF0.0
aF0.0
aF0.0
aF0.0
aF0.0
aF0.0
aF0.0
aF0.0
aa(lp16
I-1
aI-1
aI-1
aI-1
aI-1
aI23
aI22
aI21
aI20
aI19
aI18
aI17
aI-1
aI-1
aI-1
aI-1
aI-1
aI11
aI10
aI9
aI8
aI7
aI6
aI5
aI-1
aI-1
aI-1
aI-1
aI-1
aa(lp17
I-1
aI-1
aI-1
aI-1
aI-1
aI23
aI22
aI21
aI20
aI19
aI18
aI17
aI16
aI-1
aI-1
aI-1
aI12
aI11
aI10
aI9
aI8
aI7
aI6
aI5
aI-1
aI-1
aI-1
aI-1
aI-1
aa(lp18
I2
aI2
aI2
aI2
aI2
aI2
aI2
aI2
aI2
aI2
aI2
aI1
aI1
aI2
aI2
aI2
aI1
aI2
aI2
aI2
aI2
aI2
aI2
aI2
aI2
aI2
aI2
aI2
aI2
aaa(lp19
(lp20
I1
aI1
aI1
aI1
aI1
aI1
aI1
aI2
aI2
aI1
aI2
aI1
aI1
aI1
aI1
aI1
aI2
aI2
aI1
aI2
aI1
aI1
aI2
aI2
aI1
aI1
aI1
aI1
aI1
aa(lp21
I1
aI1
aI1
aI1
aI1
aI2
aI2
aI2
aI2
aI2
aI2
aI2
aI2
aI1
aI1
aI1
aI3
aI3
aI3
aI3
aI3
aI3
aI3
aI3
aI1
aI1
aI1
aI1
aI1
aa(lp22
I1
aI1
aI1
aI1
aI1
aI2
aI2
aI2
aI2
aI2
aI2
aI2
aI2
aI1
aI1
aI1
aI3
aI3
aI3
aI3
aI3
aI3
aI3
aI3
aI1
aI1
aI1
aI1
aI1
aa(lp23
F-2.0999999046325684
aF0.0
aF0.0
aF0.0
aF0.0
aF0.0
aF0.0
aF0.0
aF0.0
aF0.0
aF0.0
aF0.0
aF0.0
aF0.0
aF0.0
aF0.0
aF0.0
aF0.0
aF0.0
aF0.0
aF0.0
aF0.0
aF0.0
aF0.0
aF0.0
aF0.0
aF0.0
aF0.0
aF0.0
aa(lp24
F-2.0999999046325684
aF0.0
aF0.0
aF0.0
aF0.0
aF0.0
aF0.0
aF0.0
aF0.0
aF0.0
aF0.0
aF0.0
aF0.0
aF0.0
aF0.0
aF0.0
aF0.0
aF0.0
aF0.0
aF0.0
aF0.0
aF0.0
aF0.0
aF0.0
aF0.0
aF0.0
aF0.0
aF0.0
aF0.0
aa(lp25
I-1
aI-1
aI-1
aI-1
aI-1
aI23
aI22
aI21
aI20
aI19
aI18
aI17
aI16
aI-1
aI-1
aI-1
aI12
aI11
aI10
aI9
aI8
aI7
aI6
aI5
aI-1
aI-1
aI-1
aI-1
aI-1
aa(lp26
I-1
aI-1
aI-1
aI-1
aI-1
aI23
aI22
aI21
aI20
aI19
aI18
aI17
aI16
aI-1
aI-1
aI-1
aI12
aI11
aI10
aI9
aI8
aI7
aI6
aI5
aI-1
aI-1
aI-1
aI-1
aI-1
aa(lp27
I2
aI2
aI2
aI2
aI2
aI2
aI2
aI2
aI2
aI2
aI2
aI1
aI1
aI2
aI2
aI2
aI1
aI2
aI2
aI2
aI2
aI2
aI2
aI2
aI2
aI2
aI2
aI2
aI2
aaa(lp28
(lp29
I1
aI1
aI1
aI1
aI1
aI1
aI1
aI2
aI2
aI1
aI2
aI1
aI2
aI1
aI1
aI1
aI2
aI2
aI1
aI2
aI1
aI1
aI2
aI2
aI1
aI1
aI1
aI1
aI1
aa(lp30
I1
aI1
aI1
aI1
aI1
aI2
aI2
aI2
aI2
aI2
aI2
aI2
aI1
aI1
aI1
aI1
aI1
aI3
aI3
aI3
aI3
aI3
aI3
aI3
aI1
aI1
aI1
aI1
aI1
aa(lp31
I1
aI1
aI1
aI1
aI1
aI2
aI2
aI2
aI2
aI2
aI2
aI2
aI2
aI1
aI1
aI1
aI3
aI3
aI3
aI3
aI3
aI3
aI3
aI3
aI1
aI1
aI1
aI1
aI1
aa(lp32
F-2.5999999046325684
aF0.0
aF0.0
aF0.0
aF0.0
aF0.0
aF0.0
aF0.0
aF0.0
aF0.0
aF0.0
aF0.0
aF0.0
aF0.0
aF0.0
aF0.0
aF0.0
aF0.0
aF0.0
aF0.0
aF0.0
aF0.0
aF0.0
aF0.0
aF0.0
aF0.0
aF0.0
aF0.0
aF0.0
aa(lp33
F-1.7999999523162842
aF0.0
aF0.0
aF0.0
aF0.0
aF0.0
aF0.0
aF0.0
aF0.0
aF0.0
aF0.0
aF0.0
aF0.0
aF0.0
aF0.0
aF0.0
aF0.0
aF0.0
aF0.0
aF0.0
aF0.0
aF0.0
aF0.0
aF0.0
aF0.0
aF0.0
aF0.0
aF0.0
aF0.0
aa(lp34
I-1
aI-1
aI-1
aI-1
aI-1
aI23
aI22
aI21
aI20
aI19
aI18
aI17
aI-1
aI-1
aI-1
aI-1
aI-1
aI11
aI10
aI9
aI8
aI7
aI6
aI5
aI-1
aI-1
aI-1
aI-1
aI-1
aa(lp35
I-1
aI-1
aI-1
aI-1
aI-1
aI23
aI22
aI21
aI20
aI19
aI18
aI17
aI16
aI-1
aI-1
aI-1
aI12
aI11
aI10
aI9
aI8
aI7
aI6
aI5
aI-1
aI-1
aI-1
aI-1
aI-1
aa(lp36
I2
aI2
aI2
aI2
aI2
aI2
aI2
aI2
aI2
aI2
aI2
aI1
aI1
aI2
aI2
aI2
aI1
aI2
aI2
aI2
aI2
aI2
aI2
aI2
aI2
aI2
aI2
aI2
aI2
aaa(lp37
(lp38
I1
aI1
aI1
aI1
aI1
aI1
aI1
aI2
aI2
aI1
aI2
aI1
aI1
aI1
aI1
aI1
aI1
aI2
aI1
aI2
aI1
aI1
aI2
aI2
aI1
aI1
aI1
aI1
aI1
aa(lp39
I1
aI1
aI1
aI1
aI1
aI2
aI2
aI2
aI2
aI2
aI2
aI2
aI1
aI1
aI1
aI1
aI1
aI3
aI3
aI3
aI3
aI3
aI3
aI3
aI1
aI1
aI1
aI1
aI1
aa(lp40
I1
aI1
aI1
aI1
aI1
aI2
aI2
aI2
aI2
aI2
aI2
aI2
aI2
aI1
aI1
aI1
aI3
aI3
aI3
aI3
aI3
aI3
aI3
aI3
aI1
aI1
aI1
aI1
aI1
aa(lp41
F-1.7000000476837158
aF0.0
aF0.0
aF0.0
aF0.0
aF0.0
aF0.0
aF0.0
aF0.0
aF0.0
aF0.0
aF0.0
aF0.0
aF0.0
aF0.0
aF0.0
aF0.0
aF0.0
aF0.0
aF0.0
aF0.0
aF0.0
aF0.0
aF0.0
aF0.0
aF0.0
aF0.0
aF0.0
aF0.0
aa(lp42
F-1.7999999523162842
aF0.0
aF0.0
aF0.0
aF0.0
aF0.0
aF0.0
aF0.0
aF0.0
aF0.0
aF0.0
aF0.0
aF0.0
aF0.0
aF0.0
aF0.0
aF0.0
aF0.0
aF0.0
aF0.0
aF0.0
aF0.0
aF0.0
aF0.0
aF0.0
aF0.0
aF0.0
aF0.0
aF0.0
aa(lp43
I-1
aI-1
aI-1
aI-1
aI-1
aI23
aI22
aI21
aI20
aI19
aI18
aI17
aI-1
aI-1
aI-1
aI-1
aI-1
aI11
aI10
aI9
aI8
aI7
aI6
aI5
aI-1
aI-1
aI-1
aI-1
aI-1
aa(lp44
I-1
aI-1
aI-1
aI-1
aI-1
aI23
aI22
aI21
aI20
aI19
aI18
aI17
aI16
aI-1
aI-1
aI-1
aI12
aI11
aI10
aI9
aI8
aI7
aI6
aI5
aI-1
aI-1
aI-1
aI-1
aI-1
aa(lp45
I2
aI2
aI2
aI2
aI2
aI2
aI2
aI2
aI2
aI2
aI2
aI1
aI1
aI2
aI2
aI2
aI1
aI2
aI2
aI2
aI2
aI2
aI2
aI2
aI2
aI2
aI2
aI2
aI2
aaa(lp46
(lp47
I1
aI1
aI1
aI1
aI1
aI1
aI1
aI2
aI2
aI1
aI2
aI1
aI2
aI1
aI1
aI1
aI1
aI2
aI1
aI2
aI1
aI1
aI2
aI2
aI1
aI1
aI1
aI1
aI1
aa(lp48
I1
aI1
aI1
aI1
aI1
aI2
aI2
aI2
aI2
aI2
aI2
aI2
aI2
aI1
aI1
aI1
aI3
aI3
aI3
aI3
aI3
aI3
aI3
aI3
aI1
aI1
aI1
aI1
aI1
aa(lp49
I1
aI1
aI1
aI1
aI1
aI2
aI2
aI2
aI2
aI2
aI2
aI2
aI2
aI1
aI1
aI1
aI3
aI3
aI3
aI3
aI3
aI3
aI3
aI3
aI1
aI1
aI1
aI1
aI1
aa(lp50
F-2.299999952316284
aF0.0
aF0.0
aF0.0
aF0.0
aF0.0
aF0.0
aF0.0
aF0.0
aF0.0
aF0.0
aF0.0
aF0.0
aF0.0
aF0.0
aF0.0
aF0.0
aF0.0
aF0.0
aF0.0
aF0.0
aF0.0
aF0.0
aF0.0
aF0.0
aF0.0
aF0.0
aF0.0
aF0.0
aa(lp51
F-2.299999952316284
aF0.0
aF0.0
aF0.0
aF0.0
aF0.0
aF0.0
aF0.0
aF0.0
aF0.0
aF0.0
aF0.0
aF0.0
aF0.0
aF0.0
aF0.0
aF0.0
aF0.0
aF0.0
aF0.0
aF0.0
aF0.0
aF0.0
aF0.0
aF0.0
aF0.0
aF0.0
aF0.0
aF0.0
aa(lp52
I-1
aI-1
aI-1
aI-1
aI-1
aI23
aI22
aI21
aI20
aI19
aI18
aI17
aI16
aI-1
aI-1
aI-1
aI12
aI11
aI10
aI9
aI8
aI7
aI6
aI5
aI-1
aI-1
aI-1
aI-1
aI-1
aa(lp53
I-1
aI-1
aI-1
aI-1
aI-1
aI23
aI22
aI21
aI20
aI19
aI18
aI17
aI16
aI-1
aI-1
aI-1
aI12
aI11
aI10
aI9
aI8
aI7
aI6
aI5
aI-1
aI-1
aI-1
aI-1
aI-1
aa(lp54
I2
aI2
aI2
aI2
aI2
aI2
aI2
aI2
aI2
aI2
aI2
aI1
aI1
aI2
aI2
aI2
aI1
aI2
aI2
aI2
aI2
aI2
aI2
aI2
aI2
aI2
aI2
aI2
aI2
aaa.