(lp0
(lp1
(lp2
I1
aI2
aI3
aI2
aI1
aI3
aI1
aI1
aI1
aI3
aI2
aI1
aI2
aI1
aI3
aa(lp3
I1
aI1
aI1
aI1
aI1
aI1
aI1
aI1
aI1
aI1
aI1
aI1
aI1
aI1
aI1
aa(lp4
I1
aI2
aI2
aI2
aI2
aI1
aI1
aI1
aI1
aI1
aI3
aI3
aI3
aI3
aI1
aa(lp5
F0.0
aF0.0
aF0.0
aF0.0
aF0.0
aF0.0
aF0.0
aF0.0
aF0.0
aF0.0
aF0.0
aF0.0
aF0.0
aF0.0
aF0.0
aa(lp6
F0.6000000238418579
aF0.0
aF0.0
aF0.0
aF0.0
aF0.0
aF0.0
aF0.0
aF0.0
aF0.0
aF0.0
aF0.0
aF0.0
aF0.0
aF0.0
aa(lp7
I-1
aI-1
aI-1
aI-1
aI-1
aI-1
aI-1
aI-1
aI-1
aI-1
aI-1
aI-1
aI-1
aI-1
aI-1
aa(lp8
I-1
aI13
aI12
aI11
aI10
aI-1
aI-1
aI-1
aI-1
aI-1
aI4
aI3
aI2
aI1
aI-1
aa(lp9
I1
aI1
aI1
aI1
aI1
aI1
aI1
aI1
aI1
aI1
aI1
aI1
aI1
aI1
aI1
aaa(lp10
(lp11
I1
aI1
aI1
aI1
aI1
aI1
aI1
aI1
aI1
aI1
aI1
aI1
aI1
aI1
aI1
aa(lp12
I1
aI1
aI1
aI1
aI1
aI1
aI1
aI1
aI1
aI1
aI1
aI1
aI1
aI1
aI1
aa(lp13
I1
aI2
aI2
aI2
aI2
aI1
aI1
aI1
aI1
aI1
aI3
aI3
aI3
aI3
aI1
aa(lp14
F0.0
aF0.0
aF0.0
aF0.0
aF0.0
aF0.0
aF0.0
aF0.0
aF0.0
aF0.0
aF0.0
aF0.0
aF0.0
aF0.0
aF0.0
aa(lp15
F10.0
aF0.0
aF0.0
aF0.0
aF0.0
aF0.0
aF0.0
aF0.0
aF0.0
aF0.0
aF0.0
aF0.0
aF0.0
aF0.0
aF0.0
aa(lp16
I-1
aI-1
aI-1
aI-1
aI-1
aI-1
aI-1
aI-1
aI-1
aI-1
aI-1
aI-1
aI-1
aI-1
aI-1
aa(lp17
I-1
aI13
aI12
aI11
aI10
aI-1
aI-1
aI-1
aI-1
aI-1
aI4
aI3
aI2
aI1
aI-1
aa(lp18
I1
aI1
aI1
aI1
aI1
aI1
aI1
aI1
aI1
aI1
aI1
aI1
aI1
aI1
aI1
aaa(lp19
(lp20
I1
aI1
aI1
aI1
aI1
aI4
aI1
aI1
aI1
aI1
aI1
aI1
aI1
aI1
aI1
aa(lp21
I1
aI1
aI1
aI1
aI1
aI1
aI1
aI1
aI1
aI1
aI1
aI1
aI1
aI1
aI1
aa(lp22
I1
aI2
aI2
aI2
aI2
aI1
aI1
aI1
aI1
aI1
aI3
aI3
aI3
aI3
aI1
aa(lp23
F0.0
aF0.0
aF0.0
aF0.0
aF0.0
aF0.0
aF0.0
aF0.0
aF0.0
aF0.0
aF0.0
aF0.0
aF0.0
aF0.0
aF0.0
aa(lp24
F9.699999809265137
aF0.0
aF0.0
aF0.0
aF0.0
aF0.0
aF0.0
aF0.0
aF0.0
aF0.0
aF0.0
aF0.0
aF0.0
aF0.0
aF0.0
aa(lp25
I-1
aI-1
aI-1
aI-1
aI-1
aI-1
aI-1
aI-1
aI-1
aI-1
aI-1
aI-1
aI-1
aI-1
aI-1
aa(lp26
I-1
aI13
aI12
aI11
aI10
aI-1
aI-1
aI-1
aI-1
aI-1
aI4
aI3
aI2
aI1
aI-1
aa(lp27
I1
aI1
aI1
aI1
aI1
aI1
aI1
aI1
aI1
aI1
aI1
aI1
aI1
aI1
aI1
aaa(lp28
(lp29
I1
aI1
aI1
aI1
aI1
aI4
aI1
aI1
aI1
aI3
aI1
aI1
aI1
aI1
aI1
aa(lp30
I1
aI1
aI1
aI1
aI1
aI1
aI1
aI1
aI1
aI1
aI1
aI1
aI1
aI1
aI1
aa(lp31
I1
aI2
aI2
aI2
aI2
aI1
aI1
aI1
aI1
aI1
aI3
aI3
aI3
aI3
aI1
aa(lp32
F0.0
aF0.0
aF0.0
aF0.0
aF0.0
aF0.0
aF0.0
aF0.0
aF0.0
aF0.0
aF0.0
aF0.0
aF0.0
aF0.0
aF0.0
aa(lp33
F9.699999809265137
aF0.0
aF0.0
aF0.0
aF0.0
aF0.0
aF0.0
aF0.0
aF0.0
aF0.0
aF0.0
aF0.0
aF0.0
aF0.0
aF0.0
aa(lp34
I-1
aI-1
aI-1
aI-1
aI-1
aI-1
aI-1
aI-1
aI-1
aI-1
aI-1
aI-1
aI-1
aI-1
aI-1
aa(lp35
I-1
aI13
aI12
aI11
aI10
aI-1
aI-1
aI-1
aI-1
aI-1
aI4
aI3
aI2
aI1
aI-1
aa(lp36
I1
aI1
aI1
aI1
aI1
aI1
aI1
aI1
aI1
aI1
aI1
aI1
aI1
aI1
aI1
aaa(lp37
(lp38
I1
aI1
aI1
aI1
aI2
aI4
aI1
aI1
aI1
aI3
aI1
aI1
aI1
aI1
aI1
aa(lp39
I1
aI1
aI1
aI1
aI1
aI1
aI1
aI1
aI1
aI1
aI1
aI1
aI1
aI1
aI1
aa(lp40
I1
aI2
aI2
aI2
aI2
aI1
aI1
aI1
aI1
aI1
aI3
aI3
aI3
aI3
aI1
aa(lp41
F0.0
aF0.0
aF0.0
aF0.0
aF0.0
aF0.0
aF0.0
aF0.0
aF0.0
aF0.0
aF0.0
aF0.0
aF0.0
aF0.0
aF0.0
aa(lp42
F7.699999809265137
aF0.0
aF0.0
aF0.0
aF0.0
aF0.0
aF0.0
aF0.0
aF0.0
aF0.0
aF0.0
aF0.0
aF0.0
aF0.0
aF0.0
aa(lp43
I-1
aI-1
aI-1
aI-1
aI-1
aI-1
aI-1
aI-1
aI-1
aI-1
aI-1
aI-1
aI-1
aI-1
aI-1
aa(lp44
I-1
aI13
aI12
aI11
aI10
aI-1
aI-1
aI-1
aI-1
aI-1
aI4
aI3
aI2
aI1
aI-1
aa(lp45
I1
aI1
aI1
aI1
aI1
aI1
aI1
aI1
aI1
aI1
aI1
aI1
aI1
aI1
aI1
aaa(lp46
(lp47
I1
aI1
aI1
aI1
aI2
aI4
aI1
aI1
aI1
aI3
aI3
aI1
aI1
aI1
aI1
aa(lp48
I1
aI1
aI1
aI1
aI1
aI1
aI1
aI1
aI1
aI1
aI1
aI1
aI1
aI1
aI1
aa(lp49
I1
aI2
aI2
aI2
aI2
aI1
aI1
aI1
aI1
aI1
aI3
aI3
aI3
aI3
aI1
aa(lp50
F0.0
aF0.0
aF0.0
aF0.0
aF0.0
aF0.0
aF0.0
aF0.0
aF0.0
aF0.0
aF0.0
aF0.0
aF0.0
aF0.0
aF0.0
aa(lp51
F9.600000381469727
aF0.0
aF0.0
aF0.0
aF0.0
aF0.0
aF0.0
aF0.0
aF0.0
aF0.0
aF0.0
aF0.0
aF0.0
aF0.0
aF0.0
aa(lp52
I-1
aI-1
aI-1
aI-1
aI-1
aI-1
aI-1
aI-1
aI-1
aI-1
aI-1
aI-1
aI-1
aI-1
aI-1
aa(lp53
I-1
aI13
aI12
aI11
aI10
aI-1
aI-1
aI-1
aI-1
aI-1
aI4
aI3
aI2
aI1
aI-1
aa(lp54
I1
aI1
aI1
aI1
aI1
aI1
aI1
aI1
aI1
aI1
aI1
aI1
aI1
aI1
aI1
aaa(lp55
(lp56
I1
aI4
aI1
aI1
aI2
aI4
aI1
aI1
aI1
aI3
aI3
aI1
aI1
aI1
aI1
aa(lp57
I1
aI1
aI1
aI1
aI1
aI1
aI1
aI1
aI1
aI1
aI1
aI1
aI1
aI1
aI1
aa(lp58
I1
aI2
aI2
aI2
aI2
aI1
aI1
aI1
aI1
aI1
aI3
aI3
aI3
aI3
aI1
aa(lp59
F0.0
aF0.0
aF0.0
aF0.0
aF0.0
aF0.0
aF0.0
aF0.0
aF0.0
aF0.0
aF0.0
aF0.0
aF0.0
aF0.0
aF0.0
aa(lp60
F9.600000381469727
aF0.0
aF0.0
aF0.0
aF0.0
aF0.0
aF0.0
aF0.0
aF0.0
aF0.0
aF0.0
aF0.0
aF0.0
aF0.0
aF0.0
aa(lp61
I-1
aI-1
aI-1
aI-1
aI-1
aI-1
aI-1
aI-1
aI-1
aI-1
aI-1
aI-1
aI-1
aI-1
aI-1
aa(lp62
I-1
aI13
aI12
aI11
aI10
aI-1
aI-1
aI-1
aI-1
aI-1
aI4
aI3
aI2
aI1
aI-1
aa(lp63
I1
aI1
aI1
aI1
aI1
aI1
aI1
aI1
aI1
aI1
aI1
aI1
aI1
aI1
aI1
aaa(lp64
(lp65
I1
aI4
aI4
aI1
aI2
aI4
aI1
aI1
aI1
aI3
aI3
aI1
aI1
aI1
aI1
aa(lp66
I1
aI2
aI2
aI1
aI1
aI1
aI1
aI1
aI1
aI3
aI3
aI1
aI1
aI1
aI1
aa(lp67
I1
aI2
aI2
aI2
aI2
aI1
aI1
aI1
aI1
aI1
aI3
aI3
aI3
aI3
aI1
aa(lp68
F-0.5
aF0.0
aF0.0
aF0.0
aF0.0
aF0.0
aF0.0
aF0.0
aF0.0
aF0.0
aF0.0
aF0.0
aF0.0
aF0.0
aF0.0
aa(lp69
F9.600000381469727
aF0.0
aF0.0
aF0.0
aF0.0
aF0.0
aF0.0
aF0.0
aF0.0
aF0.0
aF0.0
aF0.0
aF0.0
aF0.0
aF0.0
aa(lp70
I-1
aI10
aI9
aI-1
aI-1
aI-1
aI-1
aI-1
aI-1
aI2
aI1
aI-1
aI-1
aI-1
aI-1
aa(lp71
I-1
aI13
aI12
aI11
aI10
aI-1
aI-1
aI-1
aI-1
aI-1
aI4
aI3
aI2
aI1
aI-1
aa(lp72
I1
aI1
aI1
aI1
aI1
aI1
aI1
aI1
aI1
aI1
aI1
aI1
aI1
aI1
aI1
aaa(lp73
(lp74
I1
aI4
aI4
aI4
aI2
aI4
aI1
aI1
aI1
aI3
aI3
aI1
aI1
aI1
aI1
aa(lp75
I1
aI1
aI2
aI2
aI2
aI1
aI1
aI1
aI3
aI3
aI3
aI1
aI1
aI1
aI1
aa(lp76
I1
aI2
aI2
aI2
aI2
aI1
aI1
aI1
aI1
aI1
aI3
aI3
aI3
aI3
aI1
aa(lp77
F-1.0
aF0.0
aF0.0
aF0.0
aF0.0
aF0.0
aF0.0
aF0.0
aF0.0
aF0.0
aF0.0
aF0.0
aF0.0
aF0.0
aF0.0
aa(lp78
F9.600000381469727
aF0.0
aF0.0
aF0.0
aF0.0
aF0.0
aF0.0
aF0.0
aF0.0
aF0.0
aF0.0
aF0.0
aF0.0
aF0.0
aF0.0
aa(lp79
I-1
aI-1
aI10
aI9
aI8
aI-1
aI-1
aI-1
aI4
aI3
aI2
aI-1
aI-1
aI-1
aI-1
aa(lp80
I-1
aI13
aI12
aI11
aI10
aI-1
aI-1
aI-1
aI-1
aI-1
aI4
aI3
aI2
aI1
aI-1
aa(lp81
I1
aI1
aI1
aI1
aI1
aI1
aI1
aI1
aI1
aI1
aI1
aI1
aI1
aI1
aI1
aaa(lp82
(lp83
I1
aI4
aI4
aI4
aI4
aI4
aI1
aI1
aI1
aI3
aI3
aI1
aI1
aI1
aI1
aa(lp84
I1
aI1
aI1
aI2
aI2
aI1
aI1
aI1
aI1
aI3
aI3
aI1
aI1
aI1
aI1
aa(lp85
I1
aI2
aI2
aI2
aI2
aI1
aI1
aI1
aI1
aI1
aI3
aI3
aI3
aI3
aI1
aa(lp86
F-0.20000000298023224
aF0.0
aF0.0
aF0.0
aF0.0
aF0.0
aF0.0
aF0.0
aF0.0
aF0.0
aF0.0
aF0.0
aF0.0
aF0.0
aF0.0
aa(lp87
F6.0
aF0.0
aF0.0
aF0.0
aF0.0
aF0.0
aF0.0
aF0.0
aF0.0
aF0.0
aF0.0
aF0.0
aF0.0
aF0.0
aF0.0
aa(lp88
I-1
aI-1
aI-1
aI10
aI9
aI-1
aI-1
aI-1
aI-1
aI4
aI3
aI-1
aI-1
aI-1
aI-1
aa(lp89
I-1
aI13
aI12
aI11
aI10
aI-1
aI-1
aI-1
aI-1
aI-1
aI4
aI3
aI2
aI1
aI-1
aa(lp90
I1
aI1
aI1
aI1
aI1
aI1
aI1
aI1
aI1
aI1
aI1
aI1
aI1
aI1
aI1
aaa(lp91
(lp92
I1
aI4
aI4
aI4
aI4
aI4
aI1
aI1
aI1
aI3
aI3
aI3
aI1
aI1
aI1
aa(lp93
I1
aI1
aI2
aI2
aI2
aI1
aI1
aI1
aI1
aI3
aI3
aI3
aI1
aI1
aI1
aa(lp94
I1
aI2
aI2
aI2
aI2
aI1
aI1
aI1
aI1
aI1
aI3
aI3
aI3
aI3
aI1
aa(lp95
F-3.5
aF0.0
aF0.0
aF0.0
aF0.0
aF0.0
aF0.0
aF0.0
aF0.0
aF0.0
aF0.0
aF0.0
aF0.0
aF0.0
aF0.0
aa(lp96
F1.399999976158142
aF0.0
aF0.0
aF0.0
aF0.0
aF0.0
aF0.0
aF0.0
aF0.0
aF0.0
aF0.0
aF0.0
aF0.0
aF0.0
aF0.0
aa(lp97
I-1
aI-1
aI11
aI10
aI9
aI-1
aI-1
aI-1
aI-1
aI4
aI3
aI2
aI-1
aI-1
aI-1
aa(lp98
I-1
aI13
aI12
aI11
aI10
aI-1
aI-1
aI-1
aI-1
aI-1
aI4
aI3
aI2
aI1
aI-1
aa(lp99
I1
aI1
aI1
aI1
aI1
aI1
aI1
aI1
aI1
aI1
aI1
aI1
aI1
aI1
aI1
aaa(lp100
(lp101
I1
aI4
aI4
aI4
aI4
aI4
aI1
aI1
aI1
aI3
aI3
aI3
aI3
aI1
aI1
aa(lp102
I1
aI2
aI2
aI2
aI2
aI1
aI1
aI1
aI1
aI3
aI3
aI3
aI3
aI1
aI1
aa(lp103
I1
aI2
aI2
aI2
aI2
aI1
aI1
aI1
aI1
aI1
aI3
aI3
aI3
aI3
aI1
aa(lp104
F-6.400000095367432
aF0.0
aF0.0
aF0.0
aF0.0
aF0.0
aF0.0
aF0.0
aF0.0
aF0.0
aF0.0
aF0.0
aF0.0
aF0.0
aF0.0
aa(lp105
F-3.200000047683716
aF0.0
aF0.0
aF0.0
aF0.0
aF0.0
aF0.0
aF0.0
aF0.0
aF0.0
aF0.0
aF0.0
aF0.0
aF0.0
aF0.0
aa(lp106
I-1
aI12
aI11
aI10
aI9
aI-1
aI-1
aI-1
aI-1
aI4
aI3
aI2
aI1
aI-1
aI-1
aa(lp107
I-1
aI13
aI12
aI11
aI10
aI-1
aI-1
aI-1
aI-1
aI-1
aI4
aI3
aI2
aI1
aI-1
aa(lp108
I1
aI1
aI1
aI1
aI1
aI1
aI1
aI1
aI1
aI1
aI1
aI1
aI1
aI1
aI1
aaa(lp109
(lp110
I1
aI4
aI4
aI4
aI4
aI4
aI1
aI1
aI1
aI3
aI3
aI3
aI3
aI3
aI1
aa(lp111
I1
aI2
aI2
aI2
aI2
aI2
aI1
aI1
aI1
aI3
aI3
aI3
aI3
aI3
aI1
aa(lp112
I1
aI2
aI2
aI2
aI2
aI1
aI1
aI1
aI1
aI1
aI3
aI3
aI3
aI3
aI1
aa(lp113
F-8.899999618530273
aF0.0
aF0.0
aF0.0
aF0.0
aF0.0
aF0.0
aF0.0
aF0.0
aF0.0
aF0.0
aF0.0
aF0.0
aF0.0
aF0.0
aa(lp114
F-6.300000190734863
aF0.0
aF0.0
aF0.0
aF0.0
aF0.0
aF0.0
aF0.0
aF0.0
aF0.0
aF0.0
aF0.0
aF0.0
aF0.0
aF0.0
aa(lp115
I-1
aI13
aI12
aI11
aI10
aI9
aI-1
aI-1
aI-1
aI5
aI4
aI3
aI2
aI1
aI-1
aa(lp116
I-1
aI13
aI12
aI11
aI10
aI-1
aI-1
aI-1
aI-1
aI-1
aI4
aI3
aI2
aI1
aI-1
aa(lp117
I1
aI1
aI1
aI1
aI1
aI1
aI1
aI1
aI1
aI1
aI1
aI1
aI1
aI1
aI1
aaa(lp118
(lp119
I1
aI4
aI4
aI4
aI4
aI1
aI1
aI1
aI1
aI3
aI3
aI3
aI3
aI3
aI1
aa(lp120
I1
aI2
aI2
aI2
aI2
aI1
aI1
aI1
aI1
aI3
aI3
aI3
aI3
aI1
aI1
aa(lp121
I1
aI2
aI2
aI2
aI2
aI1
aI1
aI1
aI1
aI1
aI3
aI3
aI3
aI3
aI1
aa(lp122
F-7.400000095367432
aF0.0
aF0.0
aF0.0
aF0.0
aF0.0
aF0.0
aF0.0
aF0.0
aF0.0
aF0.0
aF0.0
aF0.0
aF0.0
aF0.0
aa(lp123
F-6.699999809265137
aF0.0
aF0.0
aF0.0
aF0.0
aF0.0
aF0.0
aF0.0
aF0.0
aF0.0
aF0.0
aF0.0
aF0.0
aF0.0
aF0.0
aa(lp124
I-1
aI12
aI11
aI10
aI9
aI-1
aI-1
aI-1
aI-1
aI4
aI3
aI2
aI1
aI-1
aI-1
aa(lp125
I-1
aI13
aI12
aI11
aI10
aI-1
aI-1
aI-1
aI-1
aI-1
aI4
aI3
aI2
aI1
aI-1
aa(lp126
I1
aI1
aI1
aI1
aI1
aI1
aI1
aI1
aI1
aI1
aI1
aI1
aI1
aI1
aI1
aaa(lp127
(lp128
I1
aI4
aI4
aI4
aI4
aI1
aI1
aI1
aI1
aI1
aI3
aI3
aI3
aI3
aI1
aa(lp129
I1
aI2
aI2
aI2
aI2
aI1
aI1
aI1
aI1
aI1
aI3
aI3
aI3
aI3
aI1
aa(lp130
I1
aI2
aI2
aI2
aI2
aI1
aI1
aI1
aI1
aI1
aI3
aI3
aI3
aI3
aI1
aa(lp131
F-6.800000190734863
aF0.0
aF0.0
aF0.0
aF0.0
aF0.0
aF0.0
aF0.0
aF0.0
aF0.0
aF0.0
aF0.0
aF0.0
aF0.0
aF0.0
aa(lp132
F-6.800000190734863
aF0.0
aF0.0
aF0.0
aF0.0
aF0.0
aF0.0
aF0.0
aF0.0
aF0.0
aF0.0
aF0.0
aF0.0
aF0.0
aF0.0
aa(lp133
I-1
aI13
aI12
aI11
aI10
aI-1
aI-1
aI-1
aI-1
aI-1
aI4
aI3
aI2
aI1
aI-1
aa(lp134
I-1
aI13
aI12
aI11
aI10
aI-1
aI-1
aI-1
aI-1
aI-1
aI4
aI3
aI2
aI1
aI-1
aa(lp135
I1
aI1
aI1
aI1
aI1
aI1
aI1
aI1
aI1
aI1
aI1
aI1
aI1
aI1
aI1
aaa(lp136
(lp137
I1
aI4
aI4
aI4
aI4
aI4
aI1
aI1
aI1
aI1
aI3
aI3
aI3
aI3
aI1
aa(lp138
I1
aI1
aI2
aI2
aI2
aI2
aI1
aI1
aI1
aI1
aI3
aI3
aI3
aI3
aI1
aa(lp139
I1
aI2
aI2
aI2
aI2
aI1
aI1
aI1
aI1
aI1
aI3
aI3
aI3
aI3
aI1
aa(lp140
F-7.300000190734863
aF0.0
aF0.0
aF0.0
aF0.0
aF0.0
aF0.0
aF0.0
aF0.0
aF0.0
aF0.0
aF0.0
aF0.0
aF0.0
aF0.0
aa(lp141
F-6.300000190734863
aF0.0
aF0.0
aF0.0
aF0.0
aF0.0
aF0.0
aF0.0
aF0.0
aF0.0
aF0.0
aF0.0
aF0.0
aF0.0
aF0.0
aa(lp142
I-1
aI-1
aI13
aI12
aI11
aI10
aI-1
aI-1
aI-1
aI-1
aI5
aI4
aI3
aI2
aI-1
aa(lp143
I-1
aI13
aI12
aI11
aI10
aI-1
aI-1
aI-1
aI-1
aI-1
aI4
aI3
aI2
aI1
aI-1
aa(lp144
I1
aI1
aI1
aI1
aI1
aI1
aI1
aI1
aI1
aI1
aI1
aI1
aI1
aI1
aI1
aaa(lp145
(lp146
I1
aI4
aI4
aI4
aI4
aI1
aI1
aI1
aI1
aI1
aI3
aI3
aI3
aI3
aI1
aa(lp147
I1
aI2
aI2
aI2
aI2
aI1
aI1
aI1
aI1
aI1
aI3
aI3
aI3
aI3
aI1
aa(lp148
I1
aI2
aI2
aI2
aI2
aI1
aI1
aI1
aI1
aI1
aI3
aI3
aI3
aI3
aI1
aa(lp149
F-6.800000190734863
aF0.0
aF0.0
aF0.0
aF0.0
aF0.0
aF0.0
aF0.0
aF0.0
aF0.0
aF0.0
aF0.0
aF0.0
aF0.0
aF0.0
aa(lp150
F-6.800000190734863
aF0.0
aF0.0
aF0.0
aF0.0
aF0.0
aF0.0
aF0.0
aF0.0
aF0.0
aF0.0
aF0.0
aF0.0
aF0.0
aF0.0
aa(lp151
I-1
aI13
aI12
aI11
aI10
aI-1
aI-1
aI-1
aI-1
aI-1
aI4
aI3
aI2
aI1
aI-1
aa(lp152
I-1
aI13
aI12
aI11
aI10
aI-1
aI-1
aI-1
aI-1
aI-1
aI4
aI3
aI2
aI1
aI-1
aa(lp153
I1
aI1
aI1
aI1
aI1
aI1
aI1
aI1
aI1
aI1
aI1
aI1
aI1
aI1
aI1
aaa(lp154
(lp155
I1
aI4
aI4
aI4
aI2
aI1
aI1
aI1
aI1
aI1
aI3
aI3
aI3
aI3
aI1
aa(lp156
I1
aI2
aI2
aI2
aI2
aI1
aI1
aI1
aI1
aI3
aI3
aI3
aI3
aI1
aI1
aa(lp157
I1
aI2
aI2
aI2
aI2
aI1
aI1
aI1
aI1
aI1
aI3
aI3
aI3
aI3
aI1
aa(lp158
F-5.199999809265137
aF0.0
aF0.0
aF0.0
aF0.0
aF0.0
aF0.0
aF0.0
aF0.0
aF0.0
aF0.0
aF0.0
aF0.0
aF0.0
aF0.0
aa(lp159
F-4.599999904632568
aF0.0
aF0.0
aF0.0
aF0.0
aF0.0
aF0.0
aF0.0
aF0.0
aF0.0
aF0.0
aF0.0
aF0.0
aF0.0
aF0.0
aa(lp160
I-1
aI12
aI11
aI10
aI9
aI-1
aI-1
aI-1
aI-1
aI4
aI3
aI2
aI1
aI-1
aI-1
aa(lp161
I-1
aI13
aI12
aI11
aI10
aI-1
aI-1
aI-1
aI-1
aI-1
aI4
aI3
aI2
aI1
aI-1
aa(lp162
I1
aI1
aI1
aI1
aI1
aI1
aI1
aI1
aI1
aI1
aI1
aI1
aI1
aI1
aI1
aaa(lp163
(lp164
I1
aI4
aI4
aI4
aI2
aI1
aI1
aI1
aI1
aI3
aI3
aI3
aI3
aI3
aI1
aa(lp165
I1
aI2
aI2
aI2
aI2
aI1
aI1
aI1
aI1
aI3
aI3
aI3
aI3
aI1
aI1
aa(lp166
I1
aI2
aI2
aI2
aI2
aI1
aI1
aI1
aI1
aI1
aI3
aI3
aI3
aI3
aI1
aa(lp167
F-5.199999809265137
aF0.0
aF0.0
aF0.0
aF0.0
aF0.0
aF0.0
aF0.0
aF0.0
aF0.0
aF0.0
aF0.0
aF0.0
aF0.0
aF0.0
aa(lp168
F-4.699999809265137
aF0.0
aF0.0
aF0.0
aF0.0
aF0.0
aF0.0
aF0.0
aF0.0
aF0.0
aF0.0
aF0.0
aF0.0
aF0.0
aF0.0
aa(lp169
I-1
aI12
aI11
aI10
aI9
aI-1
aI-1
aI-1
aI-1
aI4
aI3
aI2
aI1
aI-1
aI-1
aa(lp170
I-1
aI13
aI12
aI11
aI10
aI-1
aI-1
aI-1
aI-1
aI-1
aI4
aI3
aI2
aI1
aI-1
aa(lp171
I1
aI1
aI1
aI1
aI1
aI1
aI1
aI1
aI1
aI1
aI1
aI1
aI1
aI1
aI1
aaa(lp172
(lp173
I1
aI4
aI4
aI4
aI2
aI4
aI1
aI1
aI1
aI3
aI3
aI3
aI3
aI3
aI1
aa(lp174
I1
aI2
aI2
aI2
aI2
aI2
aI1
aI1
aI1
aI3
aI3
aI3
aI3
aI3
aI1
aa(lp175
I1
aI2
aI2
aI2
aI2
aI1
aI1
aI1
aI1
aI1
aI3
aI3
aI3
aI3
aI1
aa(lp176
F-5.900000095367432
aF0.0
aF0.0
aF0.0
aF0.0
aF0.0
aF0.0
aF0.0
aF0.0
aF0.0
aF0.0
aF0.0
aF0.0
aF0.0
aF0.0
aa(lp177
F-4.300000190734863
aF0.0
aF0.0
aF0.0
aF0.0
aF0.0
aF0.0
aF0.0
aF0.0
aF0.0
aF0.0
aF0.0
aF0.0
aF0.0
aF0.0
aa(lp178
I-1
aI13
aI12
aI11
aI10
aI9
aI-1
aI-1
aI-1
aI5
aI4
aI3
aI2
aI1
aI-1
aa(lp179
I-1
aI13
aI12
aI11
aI10
aI-1
aI-1
aI-1
aI-1
aI-1
aI4
aI3
aI2
aI1
aI-1
aa(lp180
I1
aI1
aI1
aI1
aI1
aI1
aI1
aI1
aI1
aI1
aI1
aI1
aI1
aI1
aI1
aaa(lp181
(lp182
I1
aI2
aI4
aI4
aI2
aI4
aI1
aI1
aI1
aI3
aI3
aI3
aI3
aI3
aI1
aa(lp183
I1
aI2
aI2
aI2
aI2
aI2
aI1
aI1
aI1
aI1
aI3
aI3
aI3
aI3
aI3
aa(lp184
I1
aI2
aI2
aI2
aI2
aI1
aI1
aI1
aI1
aI1
aI3
aI3
aI3
aI3
aI1
aa(lp185
F-4.900000095367432
aF0.0
aF0.0
aF0.0
aF0.0
aF0.0
aF0.0
aF0.0
aF0.0
aF0.0
aF0.0
aF0.0
aF0.0
aF0.0
aF0.0
aa(lp186
F-1.2000000476837158
aF0.0
aF0.0
aF0.0
aF0.0
aF0.0
aF0.0
aF0.0
aF0.0
aF0.0
aF0.0
aF0.0
aF0.0
aF0.0
aF0.0
aa(lp187
I-1
aI14
aI13
aI12
aI11
aI10
aI-1
aI-1
aI-1
aI-1
aI5
aI4
aI3
aI2
aI1
aa(lp188
I-1
aI13
aI12
aI11
aI10
aI-1
aI-1
aI-1
aI-1
aI-1
aI4
aI3
aI2
aI1
aI-1
aa(lp189
I1
aI1
aI1
aI1
aI1
aI1
aI1
aI1
aI1
aI1
aI1
aI1
aI1
aI1
aI1
aaa(lp190
(lp191
I1
aI2
aI4
aI4
aI2
aI4
aI1
aI1
aI1
aI3
aI3
aI3
aI3
aI1
aI1
aa(lp192
I1
aI2
aI2
aI2
aI2
aI2
aI1
aI1
aI1
aI3
aI3
aI3
aI3
aI3
aI1
aa(lp193
I1
aI2
aI2
aI2
aI2
aI1
aI1
aI1
aI1
aI1
aI3
aI3
aI3
aI3
aI1
aa(lp194
F-4.199999809265137
aF0.0
aF0.0
aF0.0
aF0.0
aF0.0
aF0.0
aF0.0
aF0.0
aF0.0
aF0.0
aF0.0
aF0.0
aF0.0
aF0.0
aa(lp195
F-2.5999999046325684
aF0.0
aF0.0
aF0.0
aF0.0
aF0.0
aF0.0
aF0.0
aF0.0
aF0.0
aF0.0
aF0.0
aF0.0
aF0.0
aF0.0
aa(lp196
I-1
aI13
aI12
aI11
aI10
aI9
aI-1
aI-1
aI-1
aI5
aI4
aI3
aI2
aI1
aI-1
aa(lp197
I-1
aI13
aI12
aI11
aI10
aI-1
aI-1
aI-1
aI-1
aI-1
aI4
aI3
aI2
aI1
aI-1
aa(lp198
I1
aI1
aI1
aI1
aI1
aI1
aI1
aI1
aI1
aI1
aI1
aI1
aI1
aI1
aI1
aaa(lp199
(lp200
I1
aI2
aI1
aI4
aI2
aI4
aI1
aI1
aI1
aI3
aI3
aI3
aI3
aI1
aI1
aa(lp201
I1
aI1
aI1
aI2
aI2
aI2
aI1
aI1
aI1
aI1
aI3
aI3
aI3
aI1
aI1
aa(lp202
I1
aI2
aI2
aI2
aI2
aI1
aI1
aI1
aI1
aI1
aI3
aI3
aI3
aI3
aI1
aa(lp203
F-0.5
aF0.0
aF0.0
aF0.0
aF0.0
aF0.0
aF0.0
aF0.0
aF0.0
aF0.0
aF0.0
aF0.0
aF0.0
aF0.0
aF0.0
aa(lp204
F0.699999988079071
aF0.0
aF0.0
aF0.0
aF0.0
aF0.0
aF0.0
aF0.0
aF0.0
aF0.0
aF0.0
aF0.0
aF0.0
aF0.0
aF0.0
aa(lp205
I-1
aI-1
aI-1
aI12
aI11
aI10
aI-1
aI-1
aI-1
aI-1
aI5
aI4
aI3
aI-1
aI-1
aa(lp206
I-1
aI13
aI12
aI11
aI10
aI-1
aI-1
aI-1
aI-1
aI-1
aI4
aI3
aI2
aI1
aI-1
aa(lp207
I1
aI1
aI1
aI1
aI1
aI1
aI1
aI1
aI1
aI1
aI1
aI1
aI1
aI1
aI1
aaa(lp208
(lp209
I1
aI2
aI1
aI4
aI2
aI4
aI1
aI1
aI1
aI3
aI3
aI3
aI2
aI1
aI1
aa(lp210
I1
aI2
aI2
aI2
aI2
aI2
aI1
aI1
aI1
aI3
aI3
aI3
aI3
aI3
aI1
aa(lp211
I1
aI2
aI2
aI2
aI2
aI1
aI1
aI1
aI1
aI1
aI3
aI3
aI3
aI3
aI1
aa(lp212
F-2.0
aF0.0
aF0.0
aF0.0
aF0.0
aF0.0
aF0.0
aF0.0
aF0.0
aF0.0
aF0.0
aF0.0
aF0.0
aF0.0
aF0.0
aa(lp213
F-0.4000000059604645
aF0.0
aF0.0
aF0.0
aF0.0
aF0.0
aF0.0
aF0.0
aF0.0
aF0.0
aF0.0
aF0.0
aF0.0
aF0.0
aF0.0
aa(lp214
I-1
aI13
aI12
aI11
aI10
aI9
aI-1
aI-1
aI-1
aI5
aI4
aI3
aI2
aI1
aI-1
aa(lp215
I-1
aI13
aI12
aI11
aI10
aI-1
aI-1
aI-1
aI-1
aI-1
aI4
aI3
aI2
aI1
aI-1
aa(lp216
I1
aI1
aI1
aI1
aI1
aI1
aI1
aI1
aI1
aI1
aI1
aI1
aI1
aI1
aI1
aaa(lp217
(lp218
I1
aI2
aI1
aI2
aI2
aI4
aI1
aI1
aI1
aI3
aI3
aI3
aI2
aI1
aI1
aa(lp219
I1
aI1
aI1
aI1
aI1
aI1
aI1
aI1
aI1
aI1
aI1
aI1
aI1
aI1
aI1
aa(lp220
I1
aI2
aI2
aI2
aI2
aI1
aI1
aI1
aI1
aI1
aI3
aI3
aI3
aI3
aI1
aa(lp221
F0.0
aF0.0
aF0.0
aF0.0
aF0.0
aF0.0
aF0.0
aF0.0
aF0.0
aF0.0
aF0.0
aF0.0
aF0.0
aF0.0
aF0.0
aa(lp222
F2.0
aF0.0
aF0.0
aF0.0
aF0.0
aF0.0
aF0.0
aF0.0
aF0.0
aF0.0
aF0.0
aF0.0
aF0.0
aF0.0
aF0.0
aa(lp223
I-1
aI-1
aI-1
aI-1
aI-1
aI-1
aI-1
aI-1
aI-1
aI-1
aI-1
aI-1
aI-1
aI-1
aI-1
aa(lp224
I-1
aI13
aI12
aI11
aI10
aI-1
aI-1
aI-1
aI-1
aI-1
aI4
aI3
aI2
aI1
aI-1
aa(lp225
I1
aI1
aI1
aI1
aI1
aI1
aI1
aI1
aI1
aI1
aI1
aI1
aI1
aI1
aI1
aaa(lp226
(lp227
I1
aI1
aI1
aI1
aI1
aI1
aI1
aI1
aI1
aI1
aI1
aI1
aI1
aI1
aI1
aa(lp228
I1
aI1
aI1
aI1
aI1
aI1
aI1
aI1
aI1
aI1
aI1
aI1
aI1
aI1
aI1
aa(lp229
I1
aI2
aI2
aI2
aI2
aI1
aI1
aI1
aI1
aI1
aI3
aI3
aI3
aI3
aI1
aa(lp230
F0.0
aF0.0
aF0.0
aF0.0
aF0.0
aF0.0
aF0.0
aF0.0
aF0.0
aF0.0
aF0.0
aF0.0
aF0.0
aF0.0
aF0.0
aa(lp231
F10.0
aF0.0
aF0.0
aF0.0
aF0.0
aF0.0
aF0.0
aF0.0
aF0.0
aF0.0
aF0.0
aF0.0
aF0.0
aF0.0
aF0.0
aa(lp232
I-1
aI-1
aI-1
aI-1
aI-1
aI-1
aI-1
aI-1
aI-1
aI-1
aI-1
aI-1
aI-1
aI-1
aI-1
aa(lp233
I-1
aI13
aI12
aI11
aI10
aI-1
aI-1
aI-1
aI-1
aI-1
aI4
aI3
aI2
aI1
aI-1
aa(lp234
I1
aI1
aI1
aI1
aI1
aI1
aI1
aI1
aI1
aI1
aI1
aI1
aI1
aI1
aI1
aaa(lp235
(lp236
I1
aI2
aI1
aI1
aI1
aI1
aI1
aI1
aI1
aI1
aI1
aI1
aI1
aI1
aI1
aa(lp237
I1
aI1
aI1
aI1
aI1
aI1
aI1
aI1
aI1
aI1
aI1
aI1
aI1
aI1
aI1
aa(lp238
I1
aI2
aI2
aI2
aI2
aI1
aI1
aI1
aI1
aI1
aI3
aI3
aI3
aI3
aI1
aa(lp239
F0.0
aF0.0
aF0.0
aF0.0
aF0.0
aF0.0
aF0.0
aF0.0
aF0.0
aF0.0
aF0.0
aF0.0
aF0.0
aF0.0
aF0.0
aa(lp240
F7.300000190734863
aF0.0
aF0.0
aF0.0
aF0.0
aF0.0
aF0.0
aF0.0
aF0.0
aF0.0
aF0.0
aF0.0
aF0.0
aF0.0
aF0.0
aa(lp241
I-1
aI-1
aI-1
aI-1
aI-1
aI-1
aI-1
aI-1
aI-1
aI-1
aI-1
aI-1
aI-1
aI-1
aI-1
aa(lp242
I-1
aI13
aI12
aI11
aI10
aI-1
aI-1
aI-1
aI-1
aI-1
aI4
aI3
aI2
aI1
aI-1
aa(lp243
I1
aI1
aI1
aI1
aI1
aI1
aI1
aI1
aI1
aI1
aI1
aI1
aI1
aI1
aI1
aaa(lp244
(lp245
I1
aI2
aI2
aI1
aI1
aI1
aI1
aI1
aI1
aI1
aI1
aI1
aI1
aI1
aI1
aa(lp246
I1
aI1
aI1
aI1
aI1
aI1
aI1
aI1
aI1
aI1
aI1
aI1
aI1
aI1
aI1
aa(lp247
I1
aI2
aI2
aI2
aI2
aI1
aI1
aI1
aI1
aI1
aI3
aI3
aI3
aI3
aI1
aa(lp248
F0.0
aF0.0
aF0.0
aF0.0
aF0.0
aF0.0
aF0.0
aF0.0
aF0.0
aF0.0
aF0.0
aF0.0
aF0.0
aF0.0
aF0.0
aa(lp249
F5.099999904632568
aF0.0
aF0.0
aF0.0
aF0.0
aF0.0
aF0.0
aF0.0
aF0.0
aF0.0
aF0.0
aF0.0
aF0.0
aF0.0
aF0.0
aa(lp250
I-1
aI-1
aI-1
aI-1
aI-1
aI-1
aI-1
aI-1
aI-1
aI-1
aI-1
aI-1
aI-1
aI-1
aI-1
aa(lp251
I-1
aI13
aI12
aI11
aI10
aI-1
aI-1
aI-1
aI-1
aI-1
aI4
aI3
aI2
aI1
aI-1
aa(lp252
I1
aI1
aI1
aI1
aI1
aI1
aI1
aI1
aI1
aI1
aI1
aI1
aI1
aI1
aI1
aaa(lp253
(lp254
I1
aI2
aI2
aI2
aI1
aI1
aI1
aI1
aI1
aI1
aI1
aI1
aI1
aI1
aI1
aa(lp255
I1
aI1
aI1
aI1
aI1
aI1
aI1
aI1
aI1
aI1
aI1
aI1
aI1
aI1
aI1
aa(lp256
I1
aI2
aI2
aI2
aI2
aI1
aI1
aI1
aI1
aI1
aI3
aI3
aI3
aI3
aI1
aa(lp257
F0.0
aF0.0
aF0.0
aF0.0
aF0.0
aF0.0
aF0.0
aF0.0
aF0.0
aF0.0
aF0.0
aF0.0
aF0.0
aF0.0
aF0.0
aa(lp258
F2.9000000953674316
aF0.0
aF0.0
aF0.0
aF0.0
aF0.0
aF0.0
aF0.0
aF0.0
aF0.0
aF0.0
aF0.0
aF0.0
aF0.0
aF0.0
aa(lp259
I-1
aI-1
aI-1
aI-1
aI-1
aI-1
aI-1
aI-1
aI-1
aI-1
aI-1
aI-1
aI-1
aI-1
aI-1
aa(lp260
I-1
aI13
aI12
aI11
aI10
aI-1
aI-1
aI-1
aI-1
aI-1
aI4
aI3
aI2
aI1
aI-1
aa(lp261
I1
aI1
aI1
aI1
aI1
aI1
aI1
aI1
aI1
aI1
aI1
aI1
aI1
aI1
aI1
aaa(lp262
(lp263
I1
aI2
aI2
aI2
aI2
aI1
aI1
aI1
aI1
aI1
aI1
aI1
aI1
aI1
aI1
aa(lp264
I1
aI1
aI1
aI1
aI1
aI1
aI1
aI1
aI1
aI1
aI1
aI1
aI1
aI1
aI1
aa(lp265
I1
aI2
aI2
aI2
aI2
aI1
aI1
aI1
aI1
aI1
aI3
aI3
aI3
aI3
aI1
aa(lp266
F0.0
aF0.0
aF0.0
aF0.0
aF0.0
aF0.0
aF0.0
aF0.0
aF0.0
aF0.0
aF0.0
aF0.0
aF0.0
aF0.0
aF0.0
aa(lp267
F2.200000047683716
aF0.0
aF0.0
aF0.0
aF0.0
aF0.0
aF0.0
aF0.0
aF0.0
aF0.0
aF0.0
aF0.0
aF0.0
aF0.0
aF0.0
aa(lp268
I-1
aI-1
aI-1
aI-1
aI-1
aI-1
aI-1
aI-1
aI-1
aI-1
aI-1
aI-1
aI-1
aI-1
aI-1
aa(lp269
I-1
aI13
aI12
aI11
aI10
aI-1
aI-1
aI-1
aI-1
aI-1
aI4
aI3
aI2
aI1
aI-1
aa(lp270
I1
aI1
aI1
aI1
aI1
aI1
aI1
aI1
aI1
aI1
aI1
aI1
aI1
aI1
aI1
aaa(lp271
(lp272
I1
aI2
aI2
aI2
aI2
aI1
aI1
aI1
aI1
aI1
aI3
aI1
aI1
aI1
aI1
aa(lp273
I1
aI1
aI1
aI1
aI1
aI1
aI1
aI1
aI1
aI1
aI1
aI1
aI1
aI1
aI1
aa(lp274
I1
aI2
aI2
aI2
aI2
aI1
aI1
aI1
aI1
aI1
aI3
aI3
aI3
aI3
aI1
aa(lp275
F0.0
aF0.0
aF0.0
aF0.0
aF0.0
aF0.0
aF0.0
aF0.0
aF0.0
aF0.0
aF0.0
aF0.0
aF0.0
aF0.0
aF0.0
aa(lp276
F1.7999999523162842
aF0.0
aF0.0
aF0.0
aF0.0
aF0.0
aF0.0
aF0.0
aF0.0
aF0.0
aF0.0
aF0.0
aF0.0
aF0.0
aF0.0
aa(lp277
I-1
aI-1
aI-1
aI-1
aI-1
aI-1
aI-1
aI-1
aI-1
aI-1
aI-1
aI-1
aI-1
aI-1
aI-1
aa(lp278
I-1
aI13
aI12
aI11
aI10
aI-1
aI-1
aI-1
aI-1
aI-1
aI4
aI3
aI2
aI1
aI-1
aa(lp279
I1
aI1
aI1
aI1
aI1
aI1
aI1
aI1
aI1
aI1
aI1
aI1
aI1
aI1
aI1
aaa(lp280
(lp281
I1
aI2
aI2
aI2
aI2
aI1
aI1
aI1
aI1
aI1
aI3
aI3
aI1
aI1
aI1
aa(lp282
I1
aI1
aI1
aI1
aI1
aI1
aI1
aI1
aI1
aI1
aI1
aI1
aI1
aI1
aI1
aa(lp283
I1
aI2
aI2
aI2
aI2
aI1
aI1
aI1
aI1
aI1
aI3
aI3
aI3
aI3
aI1
aa(lp284
F0.0
aF0.0
aF0.0
aF0.0
aF0.0
aF0.0
aF0.0
aF0.0
aF0.0
aF0.0
aF0.0
aF0.0
aF0.0
aF0.0
aF0.0
aa(lp285
F2.200000047683716
aF0.0
aF0.0
aF0.0
aF0.0
aF0.0
aF0.0
aF0.0
aF0.0
aF0.0
aF0.0
aF0.0
aF0.0
aF0.0
aF0.0
aa(lp286
I-1
aI-1
aI-1
aI-1
aI-1
aI-1
aI-1
aI-1
aI-1
aI-1
aI-1
aI-1
aI-1
aI-1
aI-1
aa(lp287
I-1
aI13
aI12
aI11
aI10
aI-1
aI-1
aI-1
aI-1
aI-1
aI4
aI3
aI2
aI1
aI-1
aa(lp288
I1
aI1
aI1
aI1
aI1
aI1
aI1
aI1
aI1
aI1
aI1
aI1
aI1
aI1
aI1
aaa(lp289
(lp290
I1
aI2
aI2
aI2
aI2
aI1
aI1
aI1
aI1
aI1
aI3
aI3
aI3
aI1
aI1
aa(lp291
I1
aI1
aI1
aI1
aI1
aI1
aI1
aI1
aI1
aI1
aI1
aI1
aI1
aI1
aI1
aa(lp292
I1
aI2
aI2
aI2
aI2
aI1
aI1
aI1
aI1
aI1
aI3
aI3
aI3
aI3
aI1
aa(lp293
F0.0
aF0.0
aF0.0
aF0.0
aF0.0
aF0.0
aF0.0
aF0.0
aF0.0
aF0.0
aF0.0
aF0.0
aF0.0
aF0.0
aF0.0
aa(lp294
F2.5999999046325684
aF0.0
aF0.0
aF0.0
aF0.0
aF0.0
aF0.0
aF0.0
aF0.0
aF0.0
aF0.0
aF0.0
aF0.0
aF0.0
aF0.0
aa(lp295
I-1
aI-1
aI-1
aI-1
aI-1
aI-1
aI-1
aI-1
aI-1
aI-1
aI-1
aI-1
aI-1
aI-1
aI-1
aa(lp296
I-1
aI13
aI12
aI11
aI10
aI-1
aI-1
aI-1
aI-1
aI-1
aI4
aI3
aI2
aI1
aI-1
aa(lp297
I1
aI1
aI1
aI1
aI1
aI1
aI1
aI1
aI1
aI1
aI1
aI1
aI1
aI1
aI1
aaa(lp298
(lp299
I1
aI2
aI2
aI2
aI2
aI1
aI1
aI1
aI1
aI1
aI3
aI3
aI3
aI3
aI1
aa(lp300
I1
aI1
aI1
aI1
aI1
aI1
aI1
aI1
aI1
aI1
aI1
aI1
aI1
aI1
aI1
aa(lp301
I1
aI2
aI2
aI2
aI2
aI1
aI1
aI1
aI1
aI1
aI3
aI3
aI3
aI3
aI1
aa(lp302
F0.0
aF0.0
aF0.0
aF0.0
aF0.0
aF0.0
aF0.0
aF0.0
aF0.0
aF0.0
aF0.0
aF0.0
aF0.0
aF0.0
aF0.0
aa(lp303
F3.9000000953674316
aF0.0
aF0.0
aF0.0
aF0.0
aF0.0
aF0.0
aF0.0
aF0.0
aF0.0
aF0.0
aF0.0
aF0.0
aF0.0
aF0.0
aa(lp304
I-1
aI-1
aI-1
aI-1
aI-1
aI-1
aI-1
aI-1
aI-1
aI-1
aI-1
aI-1
aI-1
aI-1
aI-1
aa(lp305
I-1
aI13
aI12
aI11
aI10
aI-1
aI-1
aI-1
aI-1
aI-1
aI4
aI3
aI2
aI1
aI-1
aa(lp306
I1
aI1
aI1
aI1
aI1
aI1
aI1
aI1
aI1
aI1
aI1
aI1
aI1
aI1
aI1
aaa(lp307
(lp308
I1
aI2
aI2
aI2
aI2
aI3
aI1
aI1
aI1
aI1
aI3
aI3
aI3
aI3
aI1
aa(lp309
I1
aI1
aI1
aI1
aI1
aI1
aI1
aI1
aI1
aI1
aI1
aI1
aI1
aI1
aI1
aa(lp310
I1
aI2
aI2
aI2
aI2
aI1
aI1
aI1
aI1
aI1
aI3
aI3
aI3
aI3
aI1
aa(lp311
F0.0
aF0.0
aF0.0
aF0.0
aF0.0
aF0.0
aF0.0
aF0.0
aF0.0
aF0.0
aF0.0
aF0.0
aF0.0
aF0.0
aF0.0
aa(lp312
F3.5
aF0.0
aF0.0
aF0.0
aF0.0
aF0.0
aF0.0
aF0.0
aF0.0
aF0.0
aF0.0
aF0.0
aF0.0
aF0.0
aF0.0
aa(lp313
I-1
aI-1
aI-1
aI-1
aI-1
aI-1
aI-1
aI-1
aI-1
aI-1
aI-1
aI-1
aI-1
aI-1
aI-1
aa(lp314
I-1
aI13
aI12
aI11
aI10
aI-1
aI-1
aI-1
aI-1
aI-1
aI4
aI3
aI2
aI1
aI-1
aa(lp315
I1
aI1
aI1
aI1
aI1
aI1
aI1
aI1
aI1
aI1
aI1
aI1
aI1
aI1
aI1
aaa(lp316
(lp317
I1
aI2
aI2
aI2
aI2
aI3
aI1
aI3
aI1
aI1
aI3
aI3
aI3
aI3
aI1
aa(lp318
I1
aI1
aI1
aI1
aI1
aI1
aI1
aI1
aI1
aI1
aI1
aI1
aI1
aI1
aI1
aa(lp319
I1
aI2
aI2
aI2
aI2
aI1
aI1
aI1
aI1
aI1
aI3
aI3
aI3
aI3
aI1
aa(lp320
F0.0
aF0.0
aF0.0
aF0.0
aF0.0
aF0.0
aF0.0
aF0.0
aF0.0
aF0.0
aF0.0
aF0.0
aF0.0
aF0.0
aF0.0
aa(lp321
F3.5
aF0.0
aF0.0
aF0.0
aF0.0
aF0.0
aF0.0
aF0.0
aF0.0
aF0.0
aF0.0
aF0.0
aF0.0
aF0.0
aF0.0
aa(lp322
I-1
aI-1
aI-1
aI-1
aI-1
aI-1
aI-1
aI-1
aI-1
aI-1
aI-1
aI-1
aI-1
aI-1
aI-1
aa(lp323
I-1
aI13
aI12
aI11
aI10
aI-1
aI-1
aI-1
aI-1
aI-1
aI4
aI3
aI2
aI1
aI-1
aa(lp324
I1
aI1
aI1
aI1
aI1
aI1
aI1
aI1
aI1
aI1
aI1
aI1
aI1
aI1
aI1
aaa(lp325
(lp326
I1
aI2
aI2
aI2
aI2
aI3
aI1
aI1
aI1
aI1
aI3
aI3
aI3
aI3
aI1
aa(lp327
I1
aI1
aI1
aI1
aI1
aI1
aI1
aI1
aI1
aI1
aI1
aI1
aI1
aI1
aI1
aa(lp328
I1
aI2
aI2
aI2
aI2
aI1
aI1
aI1
aI1
aI1
aI3
aI3
aI3
aI3
aI1
aa(lp329
F0.0
aF0.0
aF0.0
aF0.0
aF0.0
aF0.0
aF0.0
aF0.0
aF0.0
aF0.0
aF0.0
aF0.0
aF0.0
aF0.0
aF0.0
aa(lp330
F3.5
aF0.0
aF0.0
aF0.0
aF0.0
aF0.0
aF0.0
aF0.0
aF0.0
aF0.0
aF0.0
aF0.0
aF0.0
aF0.0
aF0.0
aa(lp331
I-1
aI-1
aI-1
aI-1
aI-1
aI-1
aI-1
aI-1
aI-1
aI-1
aI-1
aI-1
aI-1
aI-1
aI-1
aa(lp332
I-1
aI13
aI12
aI11
aI10
aI-1
aI-1
aI-1
aI-1
aI-1
aI4
aI3
aI2
aI1
aI-1
aa(lp333
I1
aI1
aI1
aI1
aI1
aI1
aI1
aI1
aI1
aI1
aI1
aI1
aI1
aI1
aI1
aaa(lp334
(lp335
I1
aI2
aI2
aI1
aI2
aI3
aI1
aI1
aI1
aI1
aI3
aI3
aI3
aI3
aI1
aa(lp336
I1
aI1
aI1
aI1
aI1
aI1
aI1
aI1
aI1
aI1
aI1
aI1
aI1
aI1
aI1
aa(lp337
I1
aI2
aI2
aI2
aI2
aI1
aI1
aI1
aI1
aI1
aI3
aI3
aI3
aI3
aI1
aa(lp338
F0.0
aF0.0
aF0.0
aF0.0
aF0.0
aF0.0
aF0.0
aF0.0
aF0.0
aF0.0
aF0.0
aF0.0
aF0.0
aF0.0
aF0.0
aa(lp339
F6.099999904632568
aF0.0
aF0.0
aF0.0
aF0.0
aF0.0
aF0.0
aF0.0
aF0.0
aF0.0
aF0.0
aF0.0
aF0.0
aF0.0
aF0.0
aa(lp340
I-1
aI-1
aI-1
aI-1
aI-1
aI-1
aI-1
aI-1
aI-1
aI-1
aI-1
aI-1
aI-1
aI-1
aI-1
aa(lp341
I-1
aI13
aI12
aI11
aI10
aI-1
aI-1
aI-1
aI-1
aI-1
aI4
aI3
aI2
aI1
aI-1
aa(lp342
I1
aI1
aI1
aI1
aI1
aI1
aI1
aI1
aI1
aI1
aI1
aI1
aI1
aI1
aI1
aaa(lp343
(lp344
I1
aI2
aI2
aI1
aI2
aI3
aI1
aI1
aI1
aI1
aI3
aI2
aI3
aI3
aI1
aa(lp345
I1
aI1
aI1
aI1
aI1
aI1
aI1
aI1
aI1
aI1
aI1
aI1
aI1
aI1
aI1
aa(lp346
I1
aI2
aI2
aI2
aI2
aI1
aI1
aI1
aI1
aI1
aI3
aI3
aI3
aI3
aI1
aa(lp347
F0.0
aF0.0
aF0.0
aF0.0
aF0.0
aF0.0
aF0.0
aF0.0
aF0.0
aF0.0
aF0.0
aF0.0
aF0.0
aF0.0
aF0.0
aa(lp348
F2.0999999046325684
aF0.0
aF0.0
aF0.0
aF0.0
aF0.0
aF0.0
aF0.0
aF0.0
aF0.0
aF0.0
aF0.0
aF0.0
aF0.0
aF0.0
aa(lp349
I-1
aI-1
aI-1
aI-1
aI-1
aI-1
aI-1
aI-1
aI-1
aI-1
aI-1
aI-1
aI-1
aI-1
aI-1
aa(lp350
I-1
aI13
aI12
aI11
aI10
aI-1
aI-1
aI-1
aI-1
aI-1
aI4
aI3
aI2
aI1
aI-1
aa(lp351
I1
aI1
aI1
aI1
aI1
aI1
aI1
aI1
aI1
aI1
aI1
aI1
aI1
aI1
aI1
aaa(lp352
(lp353
I1
aI1
aI2
aI1
aI2
aI3
aI1
aI1
aI1
aI1
aI3
aI2
aI3
aI3
aI1
aa(lp354
I1
aI1
aI1
aI1
aI1
aI1
aI1
aI1
aI1
aI1
aI1
aI1
aI1
aI1
aI1
aa(lp355
I1
aI2
aI2
aI2
aI2
aI1
aI1
aI1
aI1
aI1
aI3
aI3
aI3
aI3
aI1
aa(lp356
F0.0
aF0.0
aF0.0
aF0.0
aF0.0
aF0.0
aF0.0
aF0.0
aF0.0
aF0.0
aF0.0
aF0.0
aF0.0
aF0.0
aF0.0
aa(lp357
F3.9000000953674316
aF0.0
aF0.0
aF0.0
aF0.0
aF0.0
aF0.0
aF0.0
aF0.0
aF0.0
aF0.0
aF0.0
aF0.0
aF0.0
aF0.0
aa(lp358
I-1
aI-1
aI-1
aI-1
aI-1
aI-1
aI-1
aI-1
aI-1
aI-1
aI-1
aI-1
aI-1
aI-1
aI-1
aa(lp359
I-1
aI13
aI12
aI11
aI10
aI-1
aI-1
aI-1
aI-1
aI-1
aI4
aI3
aI2
aI1
aI-1
aa(lp360
I1
aI1
aI1
aI1
aI1
aI1
aI1
aI1
aI1
aI1
aI1
aI1
aI1
aI1
aI1
aaa(lp361
(lp362
I1
aI1
aI2
aI1
aI2
aI3
aI1
aI1
aI1
aI1
aI3
aI2
aI3
aI2
aI1
aa(lp363
I1
aI1
aI1
aI1
aI1
aI1
aI1
aI1
aI1
aI1
aI1
aI1
aI1
aI1
aI1
aa(lp364
I1
aI2
aI2
aI2
aI2
aI1
aI1
aI1
aI1
aI1
aI3
aI3
aI3
aI3
aI1
aa(lp365
F0.0
aF0.0
aF0.0
aF0.0
aF0.0
aF0.0
aF0.0
aF0.0
aF0.0
aF0.0
aF0.0
aF0.0
aF0.0
aF0.0
aF0.0
aa(lp366
F0.5
aF0.0
aF0.0
aF0.0
aF0.0
aF0.0
aF0.0
aF0.0
aF0.0
aF0.0
aF0.0
aF0.0
aF0.0
aF0.0
aF0.0
aa(lp367
I-1
aI-1
aI-1
aI-1
aI-1
aI-1
aI-1
aI-1
aI-1
aI-1
aI-1
aI-1
aI-1
aI-1
aI-1
aa(lp368
I-1
aI13
aI12
aI11
aI10
aI-1
aI-1
aI-1
aI-1
aI-1
aI4
aI3
aI2
aI1
aI-1
aa(lp369
I1
aI1
aI1
aI1
aI1
aI1
aI1
aI1
aI1
aI1
aI1
aI1
aI1
aI1
aI1
aaa(lp370
(lp371
I4
aI1
aI2
aI1
aI2
aI3
aI1
aI1
aI1
aI1
aI3
aI2
aI3
aI2
aI1
aa(lp372
I1
aI1
aI1
aI1
aI1
aI1
aI1
aI1
aI1
aI1
aI1
aI1
aI1
aI1
aI1
aa(lp373
I1
aI2
aI2
aI2
aI2
aI1
aI1
aI1
aI1
aI1
aI3
aI3
aI3
aI3
aI1
aa(lp374
F0.0
aF0.0
aF0.0
aF0.0
aF0.0
aF0.0
aF0.0
aF0.0
aF0.0
aF0.0
aF0.0
aF0.0
aF0.0
aF0.0
aF0.0
aa(lp375
F0.699999988079071
aF0.0
aF0.0
aF0.0
aF0.0
aF0.0
aF0.0
aF0.0
aF0.0
aF0.0
aF0.0
aF0.0
aF0.0
aF0.0
aF0.0
aa(lp376
I-1
aI-1
aI-1
aI-1
aI-1
aI-1
aI-1
aI-1
aI-1
aI-1
aI-1
aI-1
aI-1
aI-1
aI-1
aa(lp377
I-1
aI13
aI12
aI11
aI10
aI-1
aI-1
aI-1
aI-1
aI-1
aI4
aI3
aI2
aI1
aI-1
aa(lp378
I1
aI1
aI1
aI1
aI1
aI1
aI1
aI1
aI1
aI1
aI1
aI1
aI1
aI1
aI1
aaa(lp379
(lp380
I4
aI1
aI2
aI1
aI2
aI3
aI1
aI1
aI1
aI1
aI3
aI2
aI3
aI2
aI4
aa(lp381
I1
aI1
aI1
aI1
aI1
aI1
aI1
aI1
aI1
aI1
aI1
aI1
aI1
aI1
aI1
aa(lp382
I1
aI2
aI2
aI2
aI2
aI1
aI1
aI1
aI1
aI1
aI3
aI3
aI3
aI3
aI1
aa(lp383
F0.0
aF0.0
aF0.0
aF0.0
aF0.0
aF0.0
aF0.0
aF0.0
aF0.0
aF0.0
aF0.0
aF0.0
aF0.0
aF0.0
aF0.0
aa(lp384
F0.8999999761581421
aF0.0
aF0.0
aF0.0
aF0.0
aF0.0
aF0.0
aF0.0
aF0.0
aF0.0
aF0.0
aF0.0
aF0.0
aF0.0
aF0.0
aa(lp385
I-1
aI-1
aI-1
aI-1
aI-1
aI-1
aI-1
aI-1
aI-1
aI-1
aI-1
aI-1
aI-1
aI-1
aI-1
aa(lp386
I-1
aI13
aI12
aI11
aI10
aI-1
aI-1
aI-1
aI-1
aI-1
aI4
aI3
aI2
aI1
aI-1
aa(lp387
I1
aI1
aI1
aI1
aI1
aI1
aI1
aI1
aI1
aI1
aI1
aI1
aI1
aI1
aI1
aaa(lp388
(lp389
I4
aI1
aI2
aI1
aI2
aI3
aI1
aI1
aI1
aI1
aI3
aI2
aI3
aI2
aI1
aa(lp390
I1
aI1
aI1
aI1
aI1
aI1
aI1
aI1
aI1
aI1
aI1
aI1
aI1
aI1
aI1
aa(lp391
I1
aI2
aI2
aI2
aI2
aI1
aI1
aI1
aI1
aI1
aI3
aI3
aI3
aI3
aI1
aa(lp392
F0.0
aF0.0
aF0.0
aF0.0
aF0.0
aF0.0
aF0.0
aF0.0
aF0.0
aF0.0
aF0.0
aF0.0
aF0.0
aF0.0
aF0.0
aa(lp393
F0.699999988079071
aF0.0
aF0.0
aF0.0
aF0.0
aF0.0
aF0.0
aF0.0
aF0.0
aF0.0
aF0.0
aF0.0
aF0.0
aF0.0
aF0.0
aa(lp394
I-1
aI-1
aI-1
aI-1
aI-1
aI-1
aI-1
aI-1
aI-1
aI-1
aI-1
aI-1
aI-1
aI-1
aI-1
aa(lp395
I-1
aI13
aI12
aI11
aI10
aI-1
aI-1
aI-1
aI-1
aI-1
aI4
aI3
aI2
aI1
aI-1
aa(lp396
I1
aI1
aI1
aI1
aI1
aI1
aI1
aI1
aI1
aI1
aI1
aI1
aI1
aI1
aI1
aaa(lp397
(lp398
I4
aI1
aI2
aI1
aI2
aI3
aI1
aI1
aI1
aI1
aI3
aI2
aI1
aI2
aI1
aa(lp399
I1
aI1
aI1
aI1
aI1
aI1
aI1
aI1
aI1
aI1
aI1
aI1
aI1
aI1
aI1
aa(lp400
I1
aI2
aI2
aI2
aI2
aI1
aI1
aI1
aI1
aI1
aI3
aI3
aI3
aI3
aI1
aa(lp401
F0.0
aF0.0
aF0.0
aF0.0
aF0.0
aF0.0
aF0.0
aF0.0
aF0.0
aF0.0
aF0.0
aF0.0
aF0.0
aF0.0
aF0.0
aa(lp402
F0.699999988079071
aF0.0
aF0.0
aF0.0
aF0.0
aF0.0
aF0.0
aF0.0
aF0.0
aF0.0
aF0.0
aF0.0
aF0.0
aF0.0
aF0.0
aa(lp403
I-1
aI-1
aI-1
aI-1
aI-1
aI-1
aI-1
aI-1
aI-1
aI-1
aI-1
aI-1
aI-1
aI-1
aI-1
aa(lp404
I-1
aI13
aI12
aI11
aI10
aI-1
aI-1
aI-1
aI-1
aI-1
aI4
aI3
aI2
aI1
aI-1
aa(lp405
I1
aI1
aI1
aI1
aI1
aI1
aI1
aI1
aI1
aI1
aI1
aI1
aI1
aI1
aI1
aaa(lp406
(lp407
I4
aI1
aI1
aI1
aI2
aI3
aI1
aI1
aI1
aI1
aI3
aI2
aI1
aI2
aI1
aa(lp408
I1
aI1
aI1
aI1
aI1
aI1
aI1
aI1
aI1
aI1
aI1
aI1
aI1
aI1
aI1
aa(lp409
I1
aI2
aI2
aI2
aI2
aI1
aI1
aI1
aI1
aI1
aI3
aI3
aI3
aI3
aI1
aa(lp410
F0.0
aF0.0
aF0.0
aF0.0
aF0.0
aF0.0
aF0.0
aF0.0
aF0.0
aF0.0
aF0.0
aF0.0
aF0.0
aF0.0
aF0.0
aa(lp411
F1.600000023841858
aF0.0
aF0.0
aF0.0
aF0.0
aF0.0
aF0.0
aF0.0
aF0.0
aF0.0
aF0.0
aF0.0
aF0.0
aF0.0
aF0.0
aa(lp412
I-1
aI-1
aI-1
aI-1
aI-1
aI-1
aI-1
aI-1
aI-1
aI-1
aI-1
aI-1
aI-1
aI-1
aI-1
aa(lp413
I-1
aI13
aI12
aI11
aI10
aI-1
aI-1
aI-1
aI-1
aI-1
aI4
aI3
aI2
aI1
aI-1
aa(lp414
I1
aI1
aI1
aI1
aI1
aI1
aI1
aI1
aI1
aI1
aI1
aI1
aI1
aI1
aI1
aaa(lp415
(lp416
I4
aI1
aI1
aI1
aI2
aI3
aI1
aI1
aI1
aI1
aI3
aI2
aI2
aI2
aI1
aa(lp417
I1
aI1
aI1
aI1
aI1
aI1
aI1
aI1
aI1
aI1
aI1
aI1
aI1
aI1
aI1
aa(lp418
I1
aI2
aI2
aI2
aI2
aI1
aI1
aI1
aI1
aI1
aI3
aI3
aI3
aI3
aI1
aa(lp419
F0.0
aF0.0
aF0.0
aF0.0
aF0.0
aF0.0
aF0.0
aF0.0
aF0.0
aF0.0
aF0.0
aF0.0
aF0.0
aF0.0
aF0.0
aa(lp420
F1.2999999523162842
aF0.0
aF0.0
aF0.0
aF0.0
aF0.0
aF0.0
aF0.0
aF0.0
aF0.0
aF0.0
aF0.0
aF0.0
aF0.0
aF0.0
aa(lp421
I-1
aI-1
aI-1
aI-1
aI-1
aI-1
aI-1
aI-1
aI-1
aI-1
aI-1
aI-1
aI-1
aI-1
aI-1
aa(lp422
I-1
aI13
aI12
aI11
aI10
aI-1
aI-1
aI-1
aI-1
aI-1
aI4
aI3
aI2
aI1
aI-1
aa(lp423
I1
aI1
aI1
aI1
aI1
aI1
aI1
aI1
aI1
aI1
aI1
aI1
aI1
aI1
aI1
aaa(lp424
(lp425
I4
aI2
aI1
aI1
aI2
aI3
aI1
aI1
aI1
aI1
aI3
aI2
aI2
aI2
aI1
aa(lp426
I1
aI1
aI1
aI1
aI1
aI1
aI1
aI1
aI1
aI1
aI1
aI1
aI1
aI1
aI1
aa(lp427
I1
aI2
aI2
aI2
aI2
aI1
aI1
aI1
aI1
aI1
aI3
aI3
aI3
aI3
aI1
aa(lp428
F0.0
aF0.0
aF0.0
aF0.0
aF0.0
aF0.0
aF0.0
aF0.0
aF0.0
aF0.0
aF0.0
aF0.0
aF0.0
aF0.0
aF0.0
aa(lp429
F1.2999999523162842
aF0.0
aF0.0
aF0.0
aF0.0
aF0.0
aF0.0
aF0.0
aF0.0
aF0.0
aF0.0
aF0.0
aF0.0
aF0.0
aF0.0
aa(lp430
I-1
aI-1
aI-1
aI-1
aI-1
aI-1
aI-1
aI-1
aI-1
aI-1
aI-1
aI-1
aI-1
aI-1
aI-1
aa(lp431
I-1
aI13
aI12
aI11
aI10
aI-1
aI-1
aI-1
aI-1
aI-1
aI4
aI3
aI2
aI1
aI-1
aa(lp432
I1
aI1
aI1
aI1
aI1
aI1
aI1
aI1
aI1
aI1
aI1
aI1
aI1
aI1
aI1
aaa(lp433
(lp434
I4
aI2
aI1
aI1
aI2
aI3
aI1
aI1
aI1
aI1
aI3
aI2
aI2
aI1
aI1
aa(lp435
I1
aI1
aI1
aI1
aI1
aI1
aI1
aI1
aI1
aI1
aI1
aI1
aI1
aI1
aI1
aa(lp436
I1
aI2
aI2
aI2
aI2
aI1
aI1
aI1
aI1
aI1
aI3
aI3
aI3
aI3
aI1
aa(lp437
F0.0
aF0.0
aF0.0
aF0.0
aF0.0
aF0.0
aF0.0
aF0.0
aF0.0
aF0.0
aF0.0
aF0.0
aF0.0
aF0.0
aF0.0
aa(lp438
F0.699999988079071
aF0.0
aF0.0
aF0.0
aF0.0
aF0.0
aF0.0
aF0.0
aF0.0
aF0.0
aF0.0
aF0.0
aF0.0
aF0.0
aF0.0
aa(lp439
I-1
aI-1
aI-1
aI-1
aI-1
aI-1
aI-1
aI-1
aI-1
aI-1
aI-1
aI-1
aI-1
aI-1
aI-1
aa(lp440
I-1
aI13
aI12
aI11
aI10
aI-1
aI-1
aI-1
aI-1
aI-1
aI4
aI3
aI2
aI1
aI-1
aa(lp441
I1
aI1
aI1
aI1
aI1
aI1
aI1
aI1
aI1
aI1
aI1
aI1
aI1
aI1
aI1
aaa(lp442
(lp443
I4
aI2
aI1
aI2
aI2
aI3
aI1
aI1
aI1
aI1
aI3
aI2
aI2
aI1
aI1
aa(lp444
I1
aI1
aI1
aI1
aI1
aI1
aI1
aI1
aI1
aI1
aI1
aI1
aI1
aI1
aI1
aa(lp445
I1
aI2
aI2
aI2
aI2
aI1
aI1
aI1
aI1
aI1
aI3
aI3
aI3
aI3
aI1
aa(lp446
F0.0
aF0.0
aF0.0
aF0.0
aF0.0
aF0.0
aF0.0
aF0.0
aF0.0
aF0.0
aF0.0
aF0.0
aF0.0
aF0.0
aF0.0
aa(lp447
F3.700000047683716
aF0.0
aF0.0
aF0.0
aF0.0
aF0.0
aF0.0
aF0.0
aF0.0
aF0.0
aF0.0
aF0.0
aF0.0
aF0.0
aF0.0
aa(lp448
I-1
aI-1
aI-1
aI-1
aI-1
aI-1
aI-1
aI-1
aI-1
aI-1
aI-1
aI-1
aI-1
aI-1
aI-1
aa(lp449
I-1
aI13
aI12
aI11
aI10
aI-1
aI-1
aI-1
aI-1
aI-1
aI4
aI3
aI2
aI1
aI-1
aa(lp450
I1
aI1
aI1
aI1
aI1
aI1
aI1
aI1
aI1
aI1
aI1
aI1
aI1
aI1
aI1
aaa(lp451
(lp452
I4
aI2
aI1
aI2
aI2
aI3
aI1
aI1
aI1
aI1
aI3
aI1
aI2
aI1
aI1
aa(lp453
I1
aI1
aI1
aI1
aI1
aI1
aI1
aI1
aI1
aI1
aI1
aI1
aI1
aI1
aI1
aa(lp454
I1
aI2
aI2
aI2
aI2
aI1
aI1
aI1
aI1
aI1
aI3
aI3
aI3
aI3
aI1
aa(lp455
F0.0
aF0.0
aF0.0
aF0.0
aF0.0
aF0.0
aF0.0
aF0.0
aF0.0
aF0.0
aF0.0
aF0.0
aF0.0
aF0.0
aF0.0
aa(lp456
F0.6000000238418579
aF0.0
aF0.0
aF0.0
aF0.0
aF0.0
aF0.0
aF0.0
aF0.0
aF0.0
aF0.0
aF0.0
aF0.0
aF0.0
aF0.0
aa(lp457
I-1
aI-1
aI-1
aI-1
aI-1
aI-1
aI-1
aI-1
aI-1
aI-1
aI-1
aI-1
aI-1
aI-1
aI-1
aa(lp458
I-1
aI13
aI12
aI11
aI10
aI-1
aI-1
aI-1
aI-1
aI-1
aI4
aI3
aI2
aI1
aI-1
aa(lp459
I1
aI1
aI1
aI1
aI1
aI1
aI1
aI1
aI1
aI1
aI1
aI1
aI1
aI1
aI1
aaa(lp460
(lp461
I1
aI2
aI1
aI2
aI2
aI3
aI1
aI1
aI1
aI1
aI3
aI1
aI2
aI1
aI1
aa(lp462
I1
aI1
aI1
aI1
aI1
aI1
aI1
aI1
aI1
aI1
aI1
aI1
aI1
aI1
aI1
aa(lp463
I1
aI2
aI2
aI2
aI2
aI1
aI1
aI1
aI1
aI1
aI3
aI3
aI3
aI3
aI1
aa(lp464
F0.0
aF0.0
aF0.0
aF0.0
aF0.0
aF0.0
aF0.0
aF0.0
aF0.0
aF0.0
aF0.0
aF0.0
aF0.0
aF0.0
aF0.0
aa(lp465
F0.800000011920929
aF0.0
aF0.0
aF0.0
aF0.0
aF0.0
aF0.0
aF0.0
aF0.0
aF0.0
aF0.0
aF0.0
aF0.0
aF0.0
aF0.0
aa(lp466
I-1
aI-1
aI-1
aI-1
aI-1
aI-1
aI-1
aI-1
aI-1
aI-1
aI-1
aI-1
aI-1
aI-1
aI-1
aa(lp467
I-1
aI13
aI12
aI11
aI10
aI-1
aI-1
aI-1
aI-1
aI-1
aI4
aI3
aI2
aI1
aI-1
aa(lp468
I1
aI1
aI1
aI1
aI1
aI1
aI1
aI1
aI1
aI1
aI1
aI1
aI1
aI1
aI1
aaa(lp469
(lp470
I1
aI2
aI1
aI2
aI2
aI3
aI1
aI1
aI1
aI1
aI3
aI1
aI2
aI3
aI1
aa(lp471
I1
aI1
aI1
aI1
aI1
aI1
aI1
aI1
aI1
aI1
aI1
aI1
aI1
aI1
aI1
aa(lp472
I1
aI2
aI2
aI2
aI2
aI1
aI1
aI1
aI1
aI1
aI3
aI3
aI3
aI3
aI1
aa(lp473
F0.0
aF0.0
aF0.0
aF0.0
aF0.0
aF0.0
aF0.0
aF0.0
aF0.0
aF0.0
aF0.0
aF0.0
aF0.0
aF0.0
aF0.0
aa(lp474
F1.600000023841858
aF0.0
aF0.0
aF0.0
aF0.0
aF0.0
aF0.0
aF0.0
aF0.0
aF0.0
aF0.0
aF0.0
aF0.0
aF0.0
aF0.0
aa(lp475
I-1
aI-1
aI-1
aI-1
aI-1
aI-1
aI-1
aI-1
aI-1
aI-1
aI-1
aI-1
aI-1
aI-1
aI-1
aa(lp476
I-1
aI13
aI12
aI11
aI10
aI-1
aI-1
aI-1
aI-1
aI-1
aI4
aI3
aI2
aI1
aI-1
aa(lp477
I1
aI1
aI1
aI1
aI1
aI1
aI1
aI1
aI1
aI1
aI1
aI1
aI1
aI1
aI1
aaa(lp478
(lp479
I1
aI3
aI1
aI2
aI2
aI3
aI1
aI1
aI1
aI1
aI3
aI1
aI2
aI3
aI1
aa(lp480
I1
aI1
aI1
aI1
aI1
aI1
aI1
aI1
aI1
aI1
aI1
aI1
aI1
aI1
aI1
aa(lp481
I1
aI2
aI2
aI2
aI2
aI1
aI1
aI1
aI1
aI1
aI3
aI3
aI3
aI3
aI1
aa(lp482
F0.0
aF0.0
aF0.0
aF0.0
aF0.0
aF0.0
aF0.0
aF0.0
aF0.0
aF0.0
aF0.0
aF0.0
aF0.0
aF0.0
aF0.0
aa(lp483
F1.7000000476837158
aF0.0
aF0.0
aF0.0
aF0.0
aF0.0
aF0.0
aF0.0
aF0.0
aF0.0
aF0.0
aF0.0
aF0.0
aF0.0
aF0.0
aa(lp484
I-1
aI-1
aI-1
aI-1
aI-1
aI-1
aI-1
aI-1
aI-1
aI-1
aI-1
aI-1
aI-1
aI-1
aI-1
aa(lp485
I-1
aI13
aI12
aI11
aI10
aI-1
aI-1
aI-1
aI-1
aI-1
aI4
aI3
aI2
aI1
aI-1
aa(lp486
I1
aI1
aI1
aI1
aI1
aI1
aI1
aI1
aI1
aI1
aI1
aI1
aI1
aI1
aI1
aaa(lp487
(lp488
I1
aI3
aI1
aI2
aI2
aI3
aI1
aI1
aI1
aI1
aI3
aI1
aI2
aI2
aI1
aa(lp489
I1
aI1
aI1
aI1
aI1
aI1
aI1
aI1
aI1
aI1
aI1
aI1
aI1
aI1
aI1
aa(lp490
I1
aI2
aI2
aI2
aI2
aI1
aI1
aI1
aI1
aI1
aI3
aI3
aI3
aI3
aI1
aa(lp491
F0.0
aF0.0
aF0.0
aF0.0
aF0.0
aF0.0
aF0.0
aF0.0
aF0.0
aF0.0
aF0.0
aF0.0
aF0.0
aF0.0
aF0.0
aa(lp492
F0.6000000238418579
aF0.0
aF0.0
aF0.0
aF0.0
aF0.0
aF0.0
aF0.0
aF0.0
aF0.0
aF0.0
aF0.0
aF0.0
aF0.0
aF0.0
aa(lp493
I-1
aI-1
aI-1
aI-1
aI-1
aI-1
aI-1
aI-1
aI-1
aI-1
aI-1
aI-1
aI-1
aI-1
aI-1
aa(lp494
I-1
aI13
aI12
aI11
aI10
aI-1
aI-1
aI-1
aI-1
aI-1
aI4
aI3
aI2
aI1
aI-1
aa(lp495
I1
aI1
aI1
aI1
aI1
aI1
aI1
aI1
aI1
aI1
aI1
aI1
aI1
aI1
aI1
aaa(lp496
(lp497
I1
aI3
aI2
aI2
aI2
aI3
aI1
aI1
aI1
aI1
aI3
aI1
aI2
aI2
aI1
aa(lp498
I1
aI1
aI1
aI1
aI1
aI1
aI1
aI1
aI1
aI1
aI1
aI1
aI1
aI1
aI1
aa(lp499
I1
aI2
aI2
aI2
aI2
aI1
aI1
aI1
aI1
aI1
aI3
aI3
aI3
aI3
aI1
aa(lp500
F0.0
aF0.0
aF0.0
aF0.0
aF0.0
aF0.0
aF0.0
aF0.0
aF0.0
aF0.0
aF0.0
aF0.0
aF0.0
aF0.0
aF0.0
aa(lp501
F3.700000047683716
aF0.0
aF0.0
aF0.0
aF0.0
aF0.0
aF0.0
aF0.0
aF0.0
aF0.0
aF0.0
aF0.0
aF0.0
aF0.0
aF0.0
aa(lp502
I-1
aI-1
aI-1
aI-1
aI-1
aI-1
aI-1
aI-1
aI-1
aI-1
aI-1
aI-1
aI-1
aI-1
aI-1
aa(lp503
I-1
aI13
aI12
aI11
aI10
aI-1
aI-1
aI-1
aI-1
aI-1
aI4
aI3
aI2
aI1
aI-1
aa(lp504
I1
aI1
aI1
aI1
aI1
aI1
aI1
aI1
aI1
aI1
aI1
aI1
aI1
aI1
aI1
aaa(lp505
(lp506
I1
aI3
aI2
aI2
aI2
aI3
aI1
aI1
aI1
aI1
aI3
aI1
aI1
aI2
aI1
aa(lp507
I1
aI1
aI1
aI1
aI1
aI1
aI1
aI1
aI1
aI1
aI1
aI1
aI1
aI1
aI1
aa(lp508
I1
aI2
aI2
aI2
aI2
aI1
aI1
aI1
aI1
aI1
aI3
aI3
aI3
aI3
aI1
aa(lp509
F0.0
aF0.0
aF0.0
aF0.0
aF0.0
aF0.0
aF0.0
aF0.0
aF0.0
aF0.0
aF0.0
aF0.0
aF0.0
aF0.0
aF0.0
aa(lp510
F0.699999988079071
aF0.0
aF0.0
aF0.0
aF0.0
aF0.0
aF0.0
aF0.0
aF0.0
aF0.0
aF0.0
aF0.0
aF0.0
aF0.0
aF0.0
aa(lp511
I-1
aI-1
aI-1
aI-1
aI-1
aI-1
aI-1
aI-1
aI-1
aI-1
aI-1
aI-1
aI-1
aI-1
aI-1
aa(lp512
I-1
aI13
aI12
aI11
aI10
aI-1
aI-1
aI-1
aI-1
aI-1
aI4
aI3
aI2
aI1
aI-1
aa(lp513
I1
aI1
aI1
aI1
aI1
aI1
aI1
aI1
aI1
aI1
aI1
aI1
aI1
aI1
aI1
aaa(lp514
(lp515
I1
aI3
aI2
aI1
aI2
aI3
aI1
aI1
aI1
aI1
aI3
aI1
aI1
aI2
aI1
aa(lp516
I1
aI1
aI1
aI1
aI1
aI1
aI1
aI1
aI1
aI1
aI1
aI1
aI1
aI1
aI1
aa(lp517
I1
aI2
aI2
aI2
aI2
aI1
aI1
aI1
aI1
aI1
aI3
aI3
aI3
aI3
aI1
aa(lp518
F0.0
aF0.0
aF0.0
aF0.0
aF0.0
aF0.0
aF0.0
aF0.0
aF0.0
aF0.0
aF0.0
aF0.0
aF0.0
aF0.0
aF0.0
aa(lp519
F3.299999952316284
aF0.0
aF0.0
aF0.0
aF0.0
aF0.0
aF0.0
aF0.0
aF0.0
aF0.0
aF0.0
aF0.0
aF0.0
aF0.0
aF0.0
aa(lp520
I-1
aI-1
aI-1
aI-1
aI-1
aI-1
aI-1
aI-1
aI-1
aI-1
aI-1
aI-1
aI-1
aI-1
aI-1
aa(lp521
I-1
aI13
aI12
aI11
aI10
aI-1
aI-1
aI-1
aI-1
aI-1
aI4
aI3
aI2
aI1
aI-1
aa(lp522
I1
aI1
aI1
aI1
aI1
aI1
aI1
aI1
aI1
aI1
aI1
aI1
aI1
aI1
aI1
aaa(lp523
(lp524
I1
aI3
aI2
aI1
aI2
aI3
aI1
aI1
aI1
aI1
aI3
aI2
aI1
aI2
aI1
aa(lp525
I1
aI1
aI1
aI1
aI1
aI1
aI1
aI1
aI1
aI1
aI1
aI1
aI1
aI1
aI1
aa(lp526
I1
aI2
aI2
aI2
aI2
aI1
aI1
aI1
aI1
aI1
aI3
aI3
aI3
aI3
aI1
aa(lp527
F0.0
aF0.0
aF0.0
aF0.0
aF0.0
aF0.0
aF0.0
aF0.0
aF0.0
aF0.0
aF0.0
aF0.0
aF0.0
aF0.0
aF0.0
aa(lp528
F0.20000000298023224
aF0.0
aF0.0
aF0.0
aF0.0
aF0.0
aF0.0
aF0.0
aF0.0
aF0.0
aF0.0
aF0.0
aF0.0
aF0.0
aF0.0
aa(lp529
I-1
aI-1
aI-1
aI-1
aI-1
aI-1
aI-1
aI-1
aI-1
aI-1
aI-1
aI-1
aI-1
aI-1
aI-1
aa(lp530
I-1
aI13
aI12
aI11
aI10
aI-1
aI-1
aI-1
aI-1
aI-1
aI4
aI3
aI2
aI1
aI-1
aa(lp531
I1
aI1
aI1
aI1
aI1
aI1
aI1
aI1
aI1
aI1
aI1
aI1
aI1
aI1
aI1
aaa(lp532
(lp533
I1
aI3
aI2
aI1
aI2
aI2
aI1
aI1
aI1
aI1
aI3
aI2
aI1
aI2
aI1
aa(lp534
I1
aI1
aI1
aI1
aI1
aI1
aI1
aI1
aI1
aI1
aI1
aI1
aI1
aI1
aI1
aa(lp535
I1
aI2
aI2
aI2
aI2
aI1
aI1
aI1
aI1
aI1
aI3
aI3
aI3
aI3
aI1
aa(lp536
F0.0
aF0.0
aF0.0
aF0.0
aF0.0
aF0.0
aF0.0
aF0.0
aF0.0
aF0.0
aF0.0
aF0.0
aF0.0
aF0.0
aF0.0
aa(lp537
F0.8999999761581421
aF0.0
aF0.0
aF0.0
aF0.0
aF0.0
aF0.0
aF0.0
aF0.0
aF0.0
aF0.0
aF0.0
aF0.0
aF0.0
aF0.0
aa(lp538
I-1
aI-1
aI-1
aI-1
aI-1
aI-1
aI-1
aI-1
aI-1
aI-1
aI-1
aI-1
aI-1
aI-1
aI-1
aa(lp539
I-1
aI13
aI12
aI11
aI10
aI-1
aI-1
aI-1
aI-1
aI-1
aI4
aI3
aI2
aI1
aI-1
aa(lp540
I1
aI1
aI1
aI1
aI1
aI1
aI1
aI1
aI1
aI1
aI1
aI1
aI1
aI1
aI1
aaa(lp541
(lp542
I1
aI3
aI2
aI1
aI2
aI2
aI1
aI1
aI1
aI2
aI3
aI2
aI1
aI2
aI1
aa(lp543
I1
aI1
aI1
aI1
aI1
aI1
aI1
aI1
aI1
aI1
aI1
aI1
aI1
aI1
aI1
aa(lp544
I1
aI2
aI2
aI2
aI2
aI1
aI1
aI1
aI1
aI1
aI3
aI3
aI3
aI3
aI1
aa(lp545
F0.0
aF0.0
aF0.0
aF0.0
aF0.0
aF0.0
aF0.0
aF0.0
aF0.0
aF0.0
aF0.0
aF0.0
aF0.0
aF0.0
aF0.0
aa(lp546
F0.20000000298023224
aF0.0
aF0.0
aF0.0
aF0.0
aF0.0
aF0.0
aF0.0
aF0.0
aF0.0
aF0.0
aF0.0
aF0.0
aF0.0
aF0.0
aa(lp547
I-1
aI-1
aI-1
aI-1
aI-1
aI-1
aI-1
aI-1
aI-1
aI-1
aI-1
aI-1
aI-1
aI-1
aI-1
aa(lp548
I-1
aI13
aI12
aI11
aI10
aI-1
aI-1
aI-1
aI-1
aI-1
aI4
aI3
aI2
aI1
aI-1
aa(lp549
I1
aI1
aI1
aI1
aI1
aI1
aI1
aI1
aI1
aI1
aI1
aI1
aI1
aI1
aI1
aaa(lp550
(lp551
I2
aI3
aI2
aI1
aI2
aI2
aI1
aI1
aI1
aI2
aI3
aI2
aI1
aI2
aI1
aa(lp552
I1
aI1
aI1
aI1
aI1
aI1
aI1
aI1
aI1
aI1
aI1
aI1
aI1
aI1
aI1
aa(lp553
I1
aI2
aI2
aI2
aI2
aI1
aI1
aI1
aI1
aI1
aI3
aI3
aI3
aI3
aI1
aa(lp554
F0.0
aF0.0
aF0.0
aF0.0
aF0.0
aF0.0
aF0.0
aF0.0
aF0.0
aF0.0
aF0.0
aF0.0
aF0.0
aF0.0
aF0.0
aa(lp555
F0.4000000059604645
aF0.0
aF0.0
aF0.0
aF0.0
aF0.0
aF0.0
aF0.0
aF0.0
aF0.0
aF0.0
aF0.0
aF0.0
aF0.0
aF0.0
aa(lp556
I-1
aI-1
aI-1
aI-1
aI-1
aI-1
aI-1
aI-1
aI-1
aI-1
aI-1
aI-1
aI-1
aI-1
aI-1
aa(lp557
I-1
aI13
aI12
aI11
aI10
aI-1
aI-1
aI-1
aI-1
aI-1
aI4
aI3
aI2
aI1
aI-1
aa(lp558
I1
aI1
aI1
aI1
aI1
aI1
aI1
aI1
aI1
aI1
aI1
aI1
aI1
aI1
aI1
aaa(lp559
(lp560
I2
aI3
aI2
aI1
aI2
aI2
aI1
aI1
aI1
aI2
aI3
aI2
aI1
aI2
aI2
aa(lp561
I1
aI1
aI1
aI1
aI1
aI1
aI1
aI1
aI1
aI1
aI1
aI1
aI1
aI1
aI1
aa(lp562
I1
aI2
aI2
aI2
aI2
aI1
aI1
aI1
aI1
aI1
aI3
aI3
aI3
aI3
aI1
aa(lp563
F0.0
aF0.0
aF0.0
aF0.0
aF0.0
aF0.0
aF0.0
aF0.0
aF0.0
aF0.0
aF0.0
aF0.0
aF0.0
aF0.0
aF0.0
aa(lp564
F0.699999988079071
aF0.0
aF0.0
aF0.0
aF0.0
aF0.0
aF0.0
aF0.0
aF0.0
aF0.0
aF0.0
aF0.0
aF0.0
aF0.0
aF0.0
aa(lp565
I-1
aI-1
aI-1
aI-1
aI-1
aI-1
aI-1
aI-1
aI-1
aI-1
aI-1
aI-1
aI-1
aI-1
aI-1
aa(lp566
I-1
aI13
aI12
aI11
aI10
aI-1
aI-1
aI-1
aI-1
aI-1
aI4
aI3
aI2
aI1
aI-1
aa(lp567
I1
aI1
aI1
aI1
aI1
aI1
aI1
aI1
aI1
aI1
aI1
aI1
aI1
aI1
aI1
aaa(lp568
(lp569
I2
aI3
aI2
aI1
aI2
aI2
aI1
aI1
aI1
aI2
aI3
aI2
aI1
aI2
aI1
aa(lp570
I1
aI1
aI1
aI1
aI1
aI1
aI1
aI1
aI1
aI1
aI1
aI1
aI1
aI1
aI1
aa(lp571
I1
aI2
aI2
aI2
aI2
aI1
aI1
aI1
aI1
aI1
aI3
aI3
aI3
aI3
aI1
aa(lp572
F0.0
aF0.0
aF0.0
aF0.0
aF0.0
aF0.0
aF0.0
aF0.0
aF0.0
aF0.0
aF0.0
aF0.0
aF0.0
aF0.0
aF0.0
aa(lp573
F0.4000000059604645
aF0.0
aF0.0
aF0.0
aF0.0
aF0.0
aF0.0
aF0.0
aF0.0
aF0.0
aF0.0
aF0.0
aF0.0
aF0.0
aF0.0
aa(lp574
I-1
aI-1
aI-1
aI-1
aI-1
aI-1
aI-1
aI-1
aI-1
aI-1
aI-1
aI-1
aI-1
aI-1
aI-1
aa(lp575
I-1
aI13
aI12
aI11
aI10
aI-1
aI-1
aI-1
aI-1
aI-1
aI4
aI3
aI2
aI1
aI-1
aa(lp576
I1
aI1
aI1
aI1
aI1
aI1
aI1
aI1
aI1
aI1
aI1
aI1
aI1
aI1
aI1
aaa(lp577
(lp578
I1
aI3
aI2
aI1
aI2
aI2
aI1
aI1
aI1
aI2
aI3
aI2
aI1
aI2
aI1
aa(lp579
I1
aI1
aI1
aI1
aI1
aI1
aI1
aI1
aI1
aI1
aI1
aI1
aI1
aI1
aI1
aa(lp580
I1
aI2
aI2
aI2
aI2
aI1
aI1
aI1
aI1
aI1
aI3
aI3
aI3
aI3
aI1
aa(lp581
F0.0
aF0.0
aF0.0
aF0.0
aF0.0
aF0.0
aF0.0
aF0.0
aF0.0
aF0.0
aF0.0
aF0.0
aF0.0
aF0.0
aF0.0
aa(lp582
F0.20000000298023224
aF0.0
aF0.0
aF0.0
aF0.0
aF0.0
aF0.0
aF0.0
aF0.0
aF0.0
aF0.0
aF0.0
aF0.0
aF0.0
aF0.0
aa(lp583
I-1
aI-1
aI-1
aI-1
aI-1
aI-1
aI-1
aI-1
aI-1
aI-1
aI-1
aI-1
aI-1
aI-1
aI-1
aa(lp584
I-1
aI13
aI12
aI11
aI10
aI-1
aI-1
aI-1
aI-1
aI-1
aI4
aI3
aI2
aI1
aI-1
aa(lp585
I1
aI1
aI1
aI1
aI1
aI1
aI1
aI1
aI1
aI1
aI1
aI1
aI1
aI1
aI1
aaa(lp586
(lp587
I1
aI3
aI2
aI1
aI1
aI2
aI1
aI1
aI1
aI2
aI3
aI2
aI1
aI2
aI1
aa(lp588
I1
aI1
aI1
aI1
aI1
aI1
aI1
aI1
aI1
aI1
aI1
aI1
aI1
aI1
aI1
aa(lp589
I1
aI2
aI2
aI2
aI2
aI1
aI1
aI1
aI1
aI1
aI3
aI3
aI3
aI3
aI1
aa(lp590
F0.0
aF0.0
aF0.0
aF0.0
aF0.0
aF0.0
aF0.0
aF0.0
aF0.0
aF0.0
aF0.0
aF0.0
aF0.0
aF0.0
aF0.0
aa(lp591
F1.0
aF0.0
aF0.0
aF0.0
aF0.0
aF0.0
aF0.0
aF0.0
aF0.0
aF0.0
aF0.0
aF0.0
aF0.0
aF0.0
aF0.0
aa(lp592
I-1
aI-1
aI-1
aI-1
aI-1
aI-1
aI-1
aI-1
aI-1
aI-1
aI-1
aI-1
aI-1
aI-1
aI-1
aa(lp593
I-1
aI13
aI12
aI11
aI10
aI-1
aI-1
aI-1
aI-1
aI-1
aI4
aI3
aI2
aI1
aI-1
aa(lp594
I1
aI1
aI1
aI1
aI1
aI1
aI1
aI1
aI1
aI1
aI1
aI1
aI1
aI1
aI1
aaa(lp595
(lp596
I1
aI3
aI2
aI1
aI1
aI2
aI1
aI1
aI1
aI2
aI2
aI2
aI1
aI2
aI1
aa(lp597
I1
aI1
aI1
aI1
aI1
aI1
aI1
aI1
aI1
aI1
aI1
aI1
aI1
aI1
aI1
aa(lp598
I1
aI2
aI2
aI2
aI2
aI1
aI1
aI1
aI1
aI1
aI3
aI3
aI3
aI3
aI1
aa(lp599
F0.0
aF0.0
aF0.0
aF0.0
aF0.0
aF0.0
aF0.0
aF0.0
aF0.0
aF0.0
aF0.0
aF0.0
aF0.0
aF0.0
aF0.0
aa(lp600
F0.4000000059604645
aF0.0
aF0.0
aF0.0
aF0.0
aF0.0
aF0.0
aF0.0
aF0.0
aF0.0
aF0.0
aF0.0
aF0.0
aF0.0
aF0.0
aa(lp601
I-1
aI-1
aI-1
aI-1
aI-1
aI-1
aI-1
aI-1
aI-1
aI-1
aI-1
aI-1
aI-1
aI-1
aI-1
aa(lp602
I-1
aI13
aI12
aI11
aI10
aI-1
aI-1
aI-1
aI-1
aI-1
aI4
aI3
aI2
aI1
aI-1
aa(lp603
I1
aI1
aI1
aI1
aI1
aI1
aI1
aI1
aI1
aI1
aI1
aI1
aI1
aI1
aI1
aaa(lp604
(lp605
I1
aI3
aI2
aI1
aI2
aI2
aI1
aI1
aI1
aI2
aI2
aI2
aI1
aI2
aI1
aa(lp606
I1
aI1
aI1
aI1
aI1
aI1
aI1
aI1
aI1
aI1
aI1
aI1
aI1
aI1
aI1
aa(lp607
I1
aI2
aI2
aI2
aI2
aI1
aI1
aI1
aI1
aI1
aI3
aI3
aI3
aI3
aI1
aa(lp608
F0.0
aF0.0
aF0.0
aF0.0
aF0.0
aF0.0
aF0.0
aF0.0
aF0.0
aF0.0
aF0.0
aF0.0
aF0.0
aF0.0
aF0.0
aa(lp609
F1.0
aF0.0
aF0.0
aF0.0
aF0.0
aF0.0
aF0.0
aF0.0
aF0.0
aF0.0
aF0.0
aF0.0
aF0.0
aF0.0
aF0.0
aa(lp610
I-1
aI-1
aI-1
aI-1
aI-1
aI-1
aI-1
aI-1
aI-1
aI-1
aI-1
aI-1
aI-1
aI-1
aI-1
aa(lp611
I-1
aI13
aI12
aI11
aI10
aI-1
aI-1
aI-1
aI-1
aI-1
aI4
aI3
aI2
aI1
aI-1
aa(lp612
I1
aI1
aI1
aI1
aI1
aI1
aI1
aI1
aI1
aI1
aI1
aI1
aI1
aI1
aI1
aaa(lp613
(lp614
I1
aI3
aI2
aI1
aI2
aI2
aI1
aI1
aI1
aI2
aI1
aI2
aI1
aI2
aI1
aa(lp615
I1
aI1
aI1
aI1
aI1
aI1
aI1
aI1
aI1
aI1
aI1
aI1
aI1
aI1
aI1
aa(lp616
I1
aI2
aI2
aI2
aI2
aI1
aI1
aI1
aI1
aI1
aI3
aI3
aI3
aI3
aI1
aa(lp617
F0.0
aF0.0
aF0.0
aF0.0
aF0.0
aF0.0
aF0.0
aF0.0
aF0.0
aF0.0
aF0.0
aF0.0
aF0.0
aF0.0
aF0.0
aa(lp618
F0.5
aF0.0
aF0.0
aF0.0
aF0.0
aF0.0
aF0.0
aF0.0
aF0.0
aF0.0
aF0.0
aF0.0
aF0.0
aF0.0
aF0.0
aa(lp619
I-1
aI-1
aI-1
aI-1
aI-1
aI-1
aI-1
aI-1
aI-1
aI-1
aI-1
aI-1
aI-1
aI-1
aI-1
aa(lp620
I-1
aI13
aI12
aI11
aI10
aI-1
aI-1
aI-1
aI-1
aI-1
aI4
aI3
aI2
aI1
aI-1
aa(lp621
I1
aI1
aI1
aI1
aI1
aI1
aI1
aI1
aI1
aI1
aI1
aI1
aI1
aI1
aI1
aaa(lp622
(lp623
I1
aI3
aI2
aI1
aI1
aI2
aI1
aI1
aI1
aI2
aI1
aI2
aI1
aI2
aI1
aa(lp624
I1
aI1
aI1
aI1
aI1
aI1
aI1
aI1
aI1
aI1
aI1
aI1
aI1
aI1
aI1
aa(lp625
I1
aI2
aI2
aI2
aI2
aI1
aI1
aI1
aI1
aI1
aI3
aI3
aI3
aI3
aI1
aa(lp626
F0.0
aF0.0
aF0.0
aF0.0
aF0.0
aF0.0
aF0.0
aF0.0
aF0.0
aF0.0
aF0.0
aF0.0
aF0.0
aF0.0
aF0.0
aa(lp627
F1.0
aF0.0
aF0.0
aF0.0
aF0.0
aF0.0
aF0.0
aF0.0
aF0.0
aF0.0
aF0.0
aF0.0
aF0.0
aF0.0
aF0.0
aa(lp628
I-1
aI-1
aI-1
aI-1
aI-1
aI-1
aI-1
aI-1
aI-1
aI-1
aI-1
aI-1
aI-1
aI-1
aI-1
aa(lp629
I-1
aI13
aI12
aI11
aI10
aI-1
aI-1
aI-1
aI-1
aI-1
aI4
aI3
aI2
aI1
aI-1
aa(lp630
I1
aI1
aI1
aI1
aI1
aI1
aI1
aI1
aI1
aI1
aI1
aI1
aI1
aI1
aI1
aaa(lp631
(lp632
I1
aI3
aI2
aI1
aI1
aI2
aI1
aI1
aI1
aI2
aI2
aI2
aI1
aI2
aI1
aa(lp633
I1
aI1
aI1
aI1
aI1
aI1
aI1
aI1
aI1
aI1
aI1
aI1
aI1
aI1
aI1
aa(lp634
I1
aI2
aI2
aI2
aI2
aI1
aI1
aI1
aI1
aI1
aI3
aI3
aI3
aI3
aI1
aa(lp635
F0.0
aF0.0
aF0.0
aF0.0
aF0.0
aF0.0
aF0.0
aF0.0
aF0.0
aF0.0
aF0.0
aF0.0
aF0.0
aF0.0
aF0.0
aa(lp636
F0.4000000059604645
aF0.0
aF0.0
aF0.0
aF0.0
aF0.0
aF0.0
aF0.0
aF0.0
aF0.0
aF0.0
aF0.0
aF0.0
aF0.0
aF0.0
aa(lp637
I-1
aI-1
aI-1
aI-1
aI-1
aI-1
aI-1
aI-1
aI-1
aI-1
aI-1
aI-1
aI-1
aI-1
aI-1
aa(lp638
I-1
aI13
aI12
aI11
aI10
aI-1
aI-1
aI-1
aI-1
aI-1
aI4
aI3
aI2
aI1
aI-1
aa(lp639
I1
aI1
aI1
aI1
aI1
aI1
aI1
aI1
aI1
aI1
aI1
aI1
aI1
aI1
aI1
aaa(lp640
(lp641
I1
aI3
aI2
aI2
aI1
aI2
aI1
aI1
aI1
aI2
aI2
aI2
aI1
aI2
aI1
aa(lp642
I1
aI1
aI1
aI1
aI1
aI1
aI1
aI1
aI1
aI1
aI1
aI1
aI1
aI1
aI1
aa(lp643
I1
aI2
aI2
aI2
aI2
aI1
aI1
aI1
aI1
aI1
aI3
aI3
aI3
aI3
aI1
aa(lp644
F0.0
aF0.0
aF0.0
aF0.0
aF0.0
aF0.0
aF0.0
aF0.0
aF0.0
aF0.0
aF0.0
aF0.0
aF0.0
aF0.0
aF0.0
aa(lp645
F0.800000011920929
aF0.0
aF0.0
aF0.0
aF0.0
aF0.0
aF0.0
aF0.0
aF0.0
aF0.0
aF0.0
aF0.0
aF0.0
aF0.0
aF0.0
aa(lp646
I-1
aI-1
aI-1
aI-1
aI-1
aI-1
aI-1
aI-1
aI-1
aI-1
aI-1
aI-1
aI-1
aI-1
aI-1
aa(lp647
I-1
aI13
aI12
aI11
aI10
aI-1
aI-1
aI-1
aI-1
aI-1
aI4
aI3
aI2
aI1
aI-1
aa(lp648
I1
aI1
aI1
aI1
aI1
aI1
aI1
aI1
aI1
aI1
aI1
aI1
aI1
aI1
aI1
aaa(lp649
(lp650
I1
aI3
aI2
aI2
aI1
aI2
aI1
aI1
aI1
aI2
aI2
aI1
aI1
aI2
aI1
aa(lp651
I1
aI1
aI1
aI1
aI1
aI1
aI1
aI1
aI1
aI1
aI1
aI1
aI1
aI1
aI1
aa(lp652
I1
aI2
aI2
aI2
aI2
aI1
aI1
aI1
aI1
aI1
aI3
aI3
aI3
aI3
aI1
aa(lp653
F0.0
aF0.0
aF0.0
aF0.0
aF0.0
aF0.0
aF0.0
aF0.0
aF0.0
aF0.0
aF0.0
aF0.0
aF0.0
aF0.0
aF0.0
aa(lp654
F0.4000000059604645
aF0.0
aF0.0
aF0.0
aF0.0
aF0.0
aF0.0
aF0.0
aF0.0
aF0.0
aF0.0
aF0.0
aF0.0
aF0.0
aF0.0
aa(lp655
I-1
aI-1
aI-1
aI-1
aI-1
aI-1
aI-1
aI-1
aI-1
aI-1
aI-1
aI-1
aI-1
aI-1
aI-1
aa(lp656
I-1
aI13
aI12
aI11
aI10
aI-1
aI-1
aI-1
aI-1
aI-1
aI4
aI3
aI2
aI1
aI-1
aa(lp657
I1
aI1
aI1
aI1
aI1
aI1
aI1
aI1
aI1
aI1
aI1
aI1
aI1
aI1
aI1
aaa(lp658
(lp659
I1
aI3
aI2
aI2
aI1
aI3
aI1
aI1
aI1
aI2
aI2
aI1
aI1
aI2
aI1
aa(lp660
I1
aI1
aI1
aI1
aI1
aI1
aI1
aI1
aI1
aI1
aI1
aI1
aI1
aI1
aI1
aa(lp661
I1
aI2
aI2
aI2
aI2
aI1
aI1
aI1
aI1
aI1
aI3
aI3
aI3
aI3
aI1
aa(lp662
F0.0
aF0.0
aF0.0
aF0.0
aF0.0
aF0.0
aF0.0
aF0.0
aF0.0
aF0.0
aF0.0
aF0.0
aF0.0
aF0.0
aF0.0
aa(lp663
F1.100000023841858
aF0.0
aF0.0
aF0.0
aF0.0
aF0.0
aF0.0
aF0.0
aF0.0
aF0.0
aF0.0
aF0.0
aF0.0
aF0.0
aF0.0
aa(lp664
I-1
aI-1
aI-1
aI-1
aI-1
aI-1
aI-1
aI-1
aI-1
aI-1
aI-1
aI-1
aI-1
aI-1
aI-1
aa(lp665
I-1
aI13
aI12
aI11
aI10
aI-1
aI-1
aI-1
aI-1
aI-1
aI4
aI3
aI2
aI1
aI-1
aa(lp666
I1
aI1
aI1
aI1
aI1
aI1
aI1
aI1
aI1
aI1
aI1
aI1
aI1
aI1
aI1
aaa(lp667
(lp668
I1
aI3
aI2
aI2
aI1
aI3
aI1
aI1
aI1
aI1
aI2
aI1
aI1
aI2
aI1
aa(lp669
I1
aI1
aI1
aI1
aI1
aI1
aI1
aI1
aI1
aI1
aI1
aI1
aI1
aI1
aI1
aa(lp670
I1
aI2
aI2
aI2
aI2
aI1
aI1
aI1
aI1
aI1
aI3
aI3
aI3
aI3
aI1
aa(lp671
F0.0
aF0.0
aF0.0
aF0.0
aF0.0
aF0.0
aF0.0
aF0.0
aF0.0
aF0.0
aF0.0
aF0.0
aF0.0
aF0.0
aF0.0
aa(lp672
F0.4000000059604645
aF0.0
aF0.0
aF0.0
aF0.0
aF0.0
aF0.0
aF0.0
aF0.0
aF0.0
aF0.0
aF0.0
aF0.0
aF0.0
aF0.0
aa(lp673
I-1
aI-1
aI-1
aI-1
aI-1
aI-1
aI-1
aI-1
aI-1
aI-1
aI-1
aI-1
aI-1
aI-1
aI-1
aa(lp674
I-1
aI13
aI12
aI11
aI10
aI-1
aI-1
aI-1
aI-1
aI-1
aI4
aI3
aI2
aI1
aI-1
aa(lp675
I1
aI1
aI1
aI1
aI1
aI1
aI1
aI1
aI1
aI1
aI1
aI1
aI1
aI1
aI1
aaa(lp676
(lp677
I1
aI3
aI1
aI2
aI1
aI3
aI1
aI1
aI1
aI1
aI2
aI1
aI1
aI2
aI1
aa(lp678
I1
aI1
aI1
aI1
aI1
aI1
aI1
aI1
aI1
aI1
aI1
aI1
aI1
aI1
aI1
aa(lp679
I1
aI2
aI2
aI2
aI2
aI1
aI1
aI1
aI1
aI1
aI3
aI3
aI3
aI3
aI1
aa(lp680
F0.0
aF0.0
aF0.0
aF0.0
aF0.0
aF0.0
aF0.0
aF0.0
aF0.0
aF0.0
aF0.0
aF0.0
aF0.0
aF0.0
aF0.0
aa(lp681
F3.4000000953674316
aF0.0
aF0.0
aF0.0
aF0.0
aF0.0
aF0.0
aF0.0
aF0.0
aF0.0
aF0.0
aF0.0
aF0.0
aF0.0
aF0.0
aa(lp682
I-1
aI-1
aI-1
aI-1
aI-1
aI-1
aI-1
aI-1
aI-1
aI-1
aI-1
aI-1
aI-1
aI-1
aI-1
aa(lp683
I-1
aI13
aI12
aI11
aI10
aI-1
aI-1
aI-1
aI-1
aI-1
aI4
aI3
aI2
aI1
aI-1
aa(lp684
I1
aI1
aI1
aI1
aI1
aI1
aI1
aI1
aI1
aI1
aI1
aI1
aI1
aI1
aI1
aaa(lp685
(lp686
I1
aI3
aI1
aI2
aI1
aI3
aI1
aI1
aI1
aI1
aI2
aI1
aI2
aI2
aI1
aa(lp687
I1
aI1
aI1
aI1
aI1
aI1
aI1
aI1
aI1
aI1
aI1
aI1
aI1
aI1
aI1
aa(lp688
I1
aI2
aI2
aI2
aI2
aI1
aI1
aI1
aI1
aI1
aI3
aI3
aI3
aI3
aI1
aa(lp689
F0.0
aF0.0
aF0.0
aF0.0
aF0.0
aF0.0
aF0.0
aF0.0
aF0.0
aF0.0
aF0.0
aF0.0
aF0.0
aF0.0
aF0.0
aa(lp690
F0.30000001192092896
aF0.0
aF0.0
aF0.0
aF0.0
aF0.0
aF0.0
aF0.0
aF0.0
aF0.0
aF0.0
aF0.0
aF0.0
aF0.0
aF0.0
aa(lp691
I-1
aI-1
aI-1
aI-1
aI-1
aI-1
aI-1
aI-1
aI-1
aI-1
aI-1
aI-1
aI-1
aI-1
aI-1
aa(lp692
I-1
aI13
aI12
aI11
aI10
aI-1
aI-1
aI-1
aI-1
aI-1
aI4
aI3
aI2
aI1
aI-1
aa(lp693
I1
aI1
aI1
aI1
aI1
aI1
aI1
aI1
aI1
aI1
aI1
aI1
aI1
aI1
aI1
aaa(lp694
(lp695
I1
aI2
aI1
aI2
aI1
aI3
aI1
aI1
aI1
aI1
aI2
aI1
aI2
aI2
aI1
aa(lp696
I1
aI1
aI1
aI1
aI1
aI1
aI1
aI1
aI1
aI1
aI1
aI1
aI1
aI1
aI1
aa(lp697
I1
aI2
aI2
aI2
aI2
aI1
aI1
aI1
aI1
aI1
aI3
aI3
aI3
aI3
aI1
aa(lp698
F0.0
aF0.0
aF0.0
aF0.0
aF0.0
aF0.0
aF0.0
aF0.0
aF0.0
aF0.0
aF0.0
aF0.0
aF0.0
aF0.0
aF0.0
aa(lp699
F1.399999976158142
aF0.0
aF0.0
aF0.0
aF0.0
aF0.0
aF0.0
aF0.0
aF0.0
aF0.0
aF0.0
aF0.0
aF0.0
aF0.0
aF0.0
aa(lp700
I-1
aI-1
aI-1
aI-1
aI-1
aI-1
aI-1
aI-1
aI-1
aI-1
aI-1
aI-1
aI-1
aI-1
aI-1
aa(lp701
I-1
aI13
aI12
aI11
aI10
aI-1
aI-1
aI-1
aI-1
aI-1
aI4
aI3
aI2
aI1
aI-1
aa(lp702
I1
aI1
aI1
aI1
aI1
aI1
aI1
aI1
aI1
aI1
aI1
aI1
aI1
aI1
aI1
aaa(lp703
(lp704
I1
aI2
aI1
aI2
aI1
aI3
aI1
aI1
aI1
aI1
aI2
aI1
aI2
aI3
aI1
aa(lp705
I1
aI1
aI1
aI1
aI1
aI1
aI1
aI1
aI1
aI1
aI1
aI1
aI1
aI1
aI1
aa(lp706
I1
aI2
aI2
aI2
aI2
aI1
aI1
aI1
aI1
aI1
aI3
aI3
aI3
aI3
aI1
aa(lp707
F0.0
aF0.0
aF0.0
aF0.0
aF0.0
aF0.0
aF0.0
aF0.0
aF0.0
aF0.0
aF0.0
aF0.0
aF0.0
aF0.0
aF0.0
aa(lp708
F1.2999999523162842
aF0.0
aF0.0
aF0.0
aF0.0
aF0.0
aF0.0
aF0.0
aF0.0
aF0.0
aF0.0
aF0.0
aF0.0
aF0.0
aF0.0
aa(lp709
I-1
aI-1
aI-1
aI-1
aI-1
aI-1
aI-1
aI-1
aI-1
aI-1
aI-1
aI-1
aI-1
aI-1
aI-1
aa(lp710
I-1
aI13
aI12
aI11
aI10
aI-1
aI-1
aI-1
aI-1
aI-1
aI4
aI3
aI2
aI1
aI-1
aa(lp711
I1
aI1
aI1
aI1
aI1
aI1
aI1
aI1
aI1
aI1
aI1
aI1
aI1
aI1
aI1
aaa(lp712
(lp713
I1
aI3
aI1
aI2
aI1
aI3
aI1
aI1
aI1
aI1
aI2
aI1
aI2
aI3
aI1
aa(lp714
I1
aI1
aI1
aI1
aI1
aI1
aI1
aI1
aI1
aI1
aI1
aI1
aI1
aI1
aI1
aa(lp715
I1
aI2
aI2
aI2
aI2
aI1
aI1
aI1
aI1
aI1
aI3
aI3
aI3
aI3
aI1
aa(lp716
F0.0
aF0.0
aF0.0
aF0.0
aF0.0
aF0.0
aF0.0
aF0.0
aF0.0
aF0.0
aF0.0
aF0.0
aF0.0
aF0.0
aF0.0
aa(lp717
F1.399999976158142
aF0.0
aF0.0
aF0.0
aF0.0
aF0.0
aF0.0
aF0.0
aF0.0
aF0.0
aF0.0
aF0.0
aF0.0
aF0.0
aF0.0
aa(lp718
I-1
aI-1
aI-1
aI-1
aI-1
aI-1
aI-1
aI-1
aI-1
aI-1
aI-1
aI-1
aI-1
aI-1
aI-1
aa(lp719
I-1
aI13
aI12
aI11
aI10
aI-1
aI-1
aI-1
aI-1
aI-1
aI4
aI3
aI2
aI1
aI-1
aa(lp720
I1
aI1
aI1
aI1
aI1
aI1
aI1
aI1
aI1
aI1
aI1
aI1
aI1
aI1
aI1
aaa(lp721
(lp722
I1
aI3
aI1
aI2
aI1
aI3
aI1
aI1
aI1
aI1
aI2
aI1
aI2
aI2
aI1
aa(lp723
I1
aI1
aI1
aI1
aI1
aI1
aI1
aI1
aI1
aI1
aI1
aI1
aI1
aI1
aI1
aa(lp724
I1
aI2
aI2
aI2
aI2
aI1
aI1
aI1
aI1
aI1
aI3
aI3
aI3
aI3
aI1
aa(lp725
F0.0
aF0.0
aF0.0
aF0.0
aF0.0
aF0.0
aF0.0
aF0.0
aF0.0
aF0.0
aF0.0
aF0.0
aF0.0
aF0.0
aF0.0
aa(lp726
F0.30000001192092896
aF0.0
aF0.0
aF0.0
aF0.0
aF0.0
aF0.0
aF0.0
aF0.0
aF0.0
aF0.0
aF0.0
aF0.0
aF0.0
aF0.0
aa(lp727
I-1
aI-1
aI-1
aI-1
aI-1
aI-1
aI-1
aI-1
aI-1
aI-1
aI-1
aI-1
aI-1
aI-1
aI-1
aa(lp728
I-1
aI13
aI12
aI11
aI10
aI-1
aI-1
aI-1
aI-1
aI-1
aI4
aI3
aI2
aI1
aI-1
aa(lp729
I1
aI1
aI1
aI1
aI1
aI1
aI1
aI1
aI1
aI1
aI1
aI1
aI1
aI1
aI1
aaa(lp730
(lp731
I1
aI3
aI3
aI2
aI1
aI3
aI1
aI1
aI1
aI1
aI2
aI1
aI2
aI2
aI1
aa(lp732
I1
aI1
aI1
aI1
aI1
aI1
aI1
aI1
aI1
aI1
aI1
aI1
aI1
aI1
aI1
aa(lp733
I1
aI2
aI2
aI2
aI2
aI1
aI1
aI1
aI1
aI1
aI3
aI3
aI3
aI3
aI1
aa(lp734
F0.0
aF0.0
aF0.0
aF0.0
aF0.0
aF0.0
aF0.0
aF0.0
aF0.0
aF0.0
aF0.0
aF0.0
aF0.0
aF0.0
aF0.0
aa(lp735
F0.800000011920929
aF0.0
aF0.0
aF0.0
aF0.0
aF0.0
aF0.0
aF0.0
aF0.0
aF0.0
aF0.0
aF0.0
aF0.0
aF0.0
aF0.0
aa(lp736
I-1
aI-1
aI-1
aI-1
aI-1
aI-1
aI-1
aI-1
aI-1
aI-1
aI-1
aI-1
aI-1
aI-1
aI-1
aa(lp737
I-1
aI13
aI12
aI11
aI10
aI-1
aI-1
aI-1
aI-1
aI-1
aI4
aI3
aI2
aI1
aI-1
aa(lp738
I1
aI1
aI1
aI1
aI1
aI1
aI1
aI1
aI1
aI1
aI1
aI1
aI1
aI1
aI1
aaa(lp739
(lp740
I1
aI2
aI3
aI2
aI1
aI3
aI1
aI1
aI1
aI1
aI2
aI1
aI2
aI2
aI1
aa(lp741
I1
aI1
aI1
aI1
aI1
aI1
aI1
aI1
aI1
aI1
aI1
aI1
aI1
aI1
aI1
aa(lp742
I1
aI2
aI2
aI2
aI2
aI1
aI1
aI1
aI1
aI1
aI3
aI3
aI3
aI3
aI1
aa(lp743
F0.0
aF0.0
aF0.0
aF0.0
aF0.0
aF0.0
aF0.0
aF0.0
aF0.0
aF0.0
aF0.0
aF0.0
aF0.0
aF0.0
aF0.0
aa(lp744
F2.299999952316284
aF0.0
aF0.0
aF0.0
aF0.0
aF0.0
aF0.0
aF0.0
aF0.0
aF0.0
aF0.0
aF0.0
aF0.0
aF0.0
aF0.0
aa(lp745
I-1
aI-1
aI-1
aI-1
aI-1
aI-1
aI-1
aI-1
aI-1
aI-1
aI-1
aI-1
aI-1
aI-1
aI-1
aa(lp746
I-1
aI13
aI12
aI11
aI10
aI-1
aI-1
aI-1
aI-1
aI-1
aI4
aI3
aI2
aI1
aI-1
aa(lp747
I1
aI1
aI1
aI1
aI1
aI1
aI1
aI1
aI1
aI1
aI1
aI1
aI1
aI1
aI1
aaa(lp748
(lp749
I1
aI2
aI3
aI2
aI1
aI3
aI1
aI1
aI1
aI1
aI2
aI1
aI2
aI1
aI1
aa(lp750
I1
aI1
aI1
aI1
aI1
aI1
aI1
aI1
aI1
aI1
aI1
aI1
aI1
aI1
aI1
aa(lp751
I1
aI2
aI2
aI2
aI2
aI1
aI1
aI1
aI1
aI1
aI3
aI3
aI3
aI3
aI1
aa(lp752
F0.0
aF0.0
aF0.0
aF0.0
aF0.0
aF0.0
aF0.0
aF0.0
aF0.0
aF0.0
aF0.0
aF0.0
aF0.0
aF0.0
aF0.0
aa(lp753
F0.5
aF0.0
aF0.0
aF0.0
aF0.0
aF0.0
aF0.0
aF0.0
aF0.0
aF0.0
aF0.0
aF0.0
aF0.0
aF0.0
aF0.0
aa(lp754
I-1
aI-1
aI-1
aI-1
aI-1
aI-1
aI-1
aI-1
aI-1
aI-1
aI-1
aI-1
aI-1
aI-1
aI-1
aa(lp755
I-1
aI13
aI12
aI11
aI10
aI-1
aI-1
aI-1
aI-1
aI-1
aI4
aI3
aI2
aI1
aI-1
aa(lp756
I1
aI1
aI1
aI1
aI1
aI1
aI1
aI1
aI1
aI1
aI1
aI1
aI1
aI1
aI1
aaa(lp757
(lp758
I1
aI2
aI2
aI2
aI1
aI3
aI1
aI1
aI1
aI1
aI2
aI1
aI2
aI1
aI1
aa(lp759
I1
aI1
aI1
aI1
aI1
aI1
aI1
aI1
aI1
aI1
aI1
aI1
aI1
aI1
aI1
aa(lp760
I1
aI2
aI2
aI2
aI2
aI1
aI1
aI1
aI1
aI1
aI3
aI3
aI3
aI3
aI1
aa(lp761
F0.0
aF0.0
aF0.0
aF0.0
aF0.0
aF0.0
aF0.0
aF0.0
aF0.0
aF0.0
aF0.0
aF0.0
aF0.0
aF0.0
aF0.0
aa(lp762
F1.399999976158142
aF0.0
aF0.0
aF0.0
aF0.0
aF0.0
aF0.0
aF0.0
aF0.0
aF0.0
aF0.0
aF0.0
aF0.0
aF0.0
aF0.0
aa(lp763
I-1
aI-1
aI-1
aI-1
aI-1
aI-1
aI-1
aI-1
aI-1
aI-1
aI-1
aI-1
aI-1
aI-1
aI-1
aa(lp764
I-1
aI13
aI12
aI11
aI10
aI-1
aI-1
aI-1
aI-1
aI-1
aI4
aI3
aI2
aI1
aI-1
aa(lp765
I1
aI1
aI1
aI1
aI1
aI1
aI1
aI1
aI1
aI1
aI1
aI1
aI1
aI1
aI1
aaa(lp766
(lp767
I1
aI2
aI2
aI2
aI1
aI3
aI1
aI1
aI1
aI1
aI2
aI1
aI3
aI1
aI1
aa(lp768
I1
aI1
aI1
aI1
aI1
aI1
aI1
aI1
aI1
aI1
aI1
aI1
aI1
aI1
aI1
aa(lp769
I1
aI2
aI2
aI2
aI2
aI1
aI1
aI1
aI1
aI1
aI3
aI3
aI3
aI3
aI1
aa(lp770
F0.0
aF0.0
aF0.0
aF0.0
aF0.0
aF0.0
aF0.0
aF0.0
aF0.0
aF0.0
aF0.0
aF0.0
aF0.0
aF0.0
aF0.0
aa(lp771
F1.0
aF0.0
aF0.0
aF0.0
aF0.0
aF0.0
aF0.0
aF0.0
aF0.0
aF0.0
aF0.0
aF0.0
aF0.0
aF0.0
aF0.0
aa(lp772
I-1
aI-1
aI-1
aI-1
aI-1
aI-1
aI-1
aI-1
aI-1
aI-1
aI-1
aI-1
aI-1
aI-1
aI-1
aa(lp773
I-1
aI13
aI12
aI11
aI10
aI-1
aI-1
aI-1
aI-1
aI-1
aI4
aI3
aI2
aI1
aI-1
aa(lp774
I1
aI1
aI1
aI1
aI1
aI1
aI1
aI1
aI1
aI1
aI1
aI1
aI1
aI1
aI1
aaa(lp775
(lp776
I1
aI1
aI2
aI2
aI1
aI3
aI1
aI1
aI1
aI1
aI2
aI1
aI3
aI1
aI1
aa(lp777
I1
aI1
aI1
aI1
aI1
aI1
aI1
aI1
aI1
aI1
aI1
aI1
aI1
aI1
aI1
aa(lp778
I1
aI2
aI2
aI2
aI2
aI1
aI1
aI1
aI1
aI1
aI3
aI3
aI3
aI3
aI1
aa(lp779
F0.0
aF0.0
aF0.0
aF0.0
aF0.0
aF0.0
aF0.0
aF0.0
aF0.0
aF0.0
aF0.0
aF0.0
aF0.0
aF0.0
aF0.0
aa(lp780
F4.099999904632568
aF0.0
aF0.0
aF0.0
aF0.0
aF0.0
aF0.0
aF0.0
aF0.0
aF0.0
aF0.0
aF0.0
aF0.0
aF0.0
aF0.0
aa(lp781
I-1
aI-1
aI-1
aI-1
aI-1
aI-1
aI-1
aI-1
aI-1
aI-1
aI-1
aI-1
aI-1
aI-1
aI-1
aa(lp782
I-1
aI13
aI12
aI11
aI10
aI-1
aI-1
aI-1
aI-1
aI-1
aI4
aI3
aI2
aI1
aI-1
aa(lp783
I1
aI1
aI1
aI1
aI1
aI1
aI1
aI1
aI1
aI1
aI1
aI1
aI1
aI1
aI1
aaa(lp784
(lp785
I1
aI1
aI2
aI2
aI1
aI3
aI1
aI1
aI1
aI1
aI2
aI1
aI3
aI2
aI1
aa(lp786
I1
aI1
aI1
aI1
aI1
aI1
aI1
aI1
aI1
aI1
aI1
aI1
aI1
aI1
aI1
aa(lp787
I1
aI2
aI2
aI2
aI2
aI1
aI1
aI1
aI1
aI1
aI3
aI3
aI3
aI3
aI1
aa(lp788
F0.0
aF0.0
aF0.0
aF0.0
aF0.0
aF0.0
aF0.0
aF0.0
aF0.0
aF0.0
aF0.0
aF0.0
aF0.0
aF0.0
aF0.0
aa(lp789
F0.699999988079071
aF0.0
aF0.0
aF0.0
aF0.0
aF0.0
aF0.0
aF0.0
aF0.0
aF0.0
aF0.0
aF0.0
aF0.0
aF0.0
aF0.0
aa(lp790
I-1
aI-1
aI-1
aI-1
aI-1
aI-1
aI-1
aI-1
aI-1
aI-1
aI-1
aI-1
aI-1
aI-1
aI-1
aa(lp791
I-1
aI13
aI12
aI11
aI10
aI-1
aI-1
aI-1
aI-1
aI-1
aI4
aI3
aI2
aI1
aI-1
aa(lp792
I1
aI1
aI1
aI1
aI1
aI1
aI1
aI1
aI1
aI1
aI1
aI1
aI1
aI1
aI1
aaa(lp793
(lp794
I1
aI1
aI3
aI2
aI1
aI3
aI1
aI1
aI1
aI1
aI2
aI1
aI3
aI2
aI1
aa(lp795
I1
aI1
aI1
aI1
aI1
aI1
aI1
aI1
aI1
aI1
aI1
aI1
aI1
aI1
aI1
aa(lp796
I1
aI2
aI2
aI2
aI2
aI1
aI1
aI1
aI1
aI1
aI3
aI3
aI3
aI3
aI1
aa(lp797
F0.0
aF0.0
aF0.0
aF0.0
aF0.0
aF0.0
aF0.0
aF0.0
aF0.0
aF0.0
aF0.0
aF0.0
aF0.0
aF0.0
aF0.0
aa(lp798
F1.5
aF0.0
aF0.0
aF0.0
aF0.0
aF0.0
aF0.0
aF0.0
aF0.0
aF0.0
aF0.0
aF0.0
aF0.0
aF0.0
aF0.0
aa(lp799
I-1
aI-1
aI-1
aI-1
aI-1
aI-1
aI-1
aI-1
aI-1
aI-1
aI-1
aI-1
aI-1
aI-1
aI-1
aa(lp800
I-1
aI13
aI12
aI11
aI10
aI-1
aI-1
aI-1
aI-1
aI-1
aI4
aI3
aI2
aI1
aI-1
aa(lp801
I1
aI1
aI1
aI1
aI1
aI1
aI1
aI1
aI1
aI1
aI1
aI1
aI1
aI1
aI1
aaa(lp802
(lp803
I1
aI1
aI3
aI2
aI1
aI3
aI1
aI1
aI1
aI1
aI2
aI1
aI2
aI2
aI1
aa(lp804
I1
aI1
aI1
aI1
aI1
aI1
aI1
aI1
aI1
aI1
aI1
aI1
aI1
aI1
aI1
aa(lp805
I1
aI2
aI2
aI2
aI2
aI1
aI1
aI1
aI1
aI1
aI3
aI3
aI3
aI3
aI1
aa(lp806
F0.0
aF0.0
aF0.0
aF0.0
aF0.0
aF0.0
aF0.0
aF0.0
aF0.0
aF0.0
aF0.0
aF0.0
aF0.0
aF0.0
aF0.0
aa(lp807
F0.699999988079071
aF0.0
aF0.0
aF0.0
aF0.0
aF0.0
aF0.0
aF0.0
aF0.0
aF0.0
aF0.0
aF0.0
aF0.0
aF0.0
aF0.0
aa(lp808
I-1
aI-1
aI-1
aI-1
aI-1
aI-1
aI-1
aI-1
aI-1
aI-1
aI-1
aI-1
aI-1
aI-1
aI-1
aa(lp809
I-1
aI13
aI12
aI11
aI10
aI-1
aI-1
aI-1
aI-1
aI-1
aI4
aI3
aI2
aI1
aI-1
aa(lp810
I1
aI1
aI1
aI1
aI1
aI1
aI1
aI1
aI1
aI1
aI1
aI1
aI1
aI1
aI1
aaa(lp811
(lp812
I1
aI2
aI3
aI2
aI1
aI3
aI1
aI1
aI1
aI1
aI2
aI1
aI2
aI2
aI1
aa(lp813
I1
aI1
aI1
aI1
aI1
aI1
aI1
aI1
aI1
aI1
aI1
aI1
aI1
aI1
aI1
aa(lp814
I1
aI2
aI2
aI2
aI2
aI1
aI1
aI1
aI1
aI1
aI3
aI3
aI3
aI3
aI1
aa(lp815
F0.0
aF0.0
aF0.0
aF0.0
aF0.0
aF0.0
aF0.0
aF0.0
aF0.0
aF0.0
aF0.0
aF0.0
aF0.0
aF0.0
aF0.0
aa(lp816
F2.299999952316284
aF0.0
aF0.0
aF0.0
aF0.0
aF0.0
aF0.0
aF0.0
aF0.0
aF0.0
aF0.0
aF0.0
aF0.0
aF0.0
aF0.0
aa(lp817
I-1
aI-1
aI-1
aI-1
aI-1
aI-1
aI-1
aI-1
aI-1
aI-1
aI-1
aI-1
aI-1
aI-1
aI-1
aa(lp818
I-1
aI13
aI12
aI11
aI10
aI-1
aI-1
aI-1
aI-1
aI-1
aI4
aI3
aI2
aI1
aI-1
aa(lp819
I1
aI1
aI1
aI1
aI1
aI1
aI1
aI1
aI1
aI1
aI1
aI1
aI1
aI1
aI1
aaa(lp820
(lp821
I1
aI2
aI3
aI2
aI1
aI3
aI1
aI1
aI1
aI1
aI2
aI1
aI2
aI1
aI1
aa(lp822
I1
aI1
aI1
aI1
aI1
aI1
aI1
aI1
aI1
aI1
aI1
aI1
aI1
aI1
aI1
aa(lp823
I1
aI2
aI2
aI2
aI2
aI1
aI1
aI1
aI1
aI1
aI3
aI3
aI3
aI3
aI1
aa(lp824
F0.0
aF0.0
aF0.0
aF0.0
aF0.0
aF0.0
aF0.0
aF0.0
aF0.0
aF0.0
aF0.0
aF0.0
aF0.0
aF0.0
aF0.0
aa(lp825
F0.5
aF0.0
aF0.0
aF0.0
aF0.0
aF0.0
aF0.0
aF0.0
aF0.0
aF0.0
aF0.0
aF0.0
aF0.0
aF0.0
aF0.0
aa(lp826
I-1
aI-1
aI-1
aI-1
aI-1
aI-1
aI-1
aI-1
aI-1
aI-1
aI-1
aI-1
aI-1
aI-1
aI-1
aa(lp827
I-1
aI13
aI12
aI11
aI10
aI-1
aI-1
aI-1
aI-1
aI-1
aI4
aI3
aI2
aI1
aI-1
aa(lp828
I1
aI1
aI1
aI1
aI1
aI1
aI1
aI1
aI1
aI1
aI1
aI1
aI1
aI1
aI1
aaa(lp829
(lp830
I1
aI1
aI3
aI2
aI1
aI3
aI1
aI1
aI1
aI1
aI2
aI1
aI2
aI1
aI1
aa(lp831
I1
aI1
aI1
aI1
aI1
aI1
aI1
aI1
aI1
aI1
aI1
aI1
aI1
aI1
aI1
aa(lp832
I1
aI2
aI2
aI2
aI2
aI1
aI1
aI1
aI1
aI1
aI3
aI3
aI3
aI3
aI1
aa(lp833
F0.0
aF0.0
aF0.0
aF0.0
aF0.0
aF0.0
aF0.0
aF0.0
aF0.0
aF0.0
aF0.0
aF0.0
aF0.0
aF0.0
aF0.0
aa(lp834
F2.299999952316284
aF0.0
aF0.0
aF0.0
aF0.0
aF0.0
aF0.0
aF0.0
aF0.0
aF0.0
aF0.0
aF0.0
aF0.0
aF0.0
aF0.0
aa(lp835
I-1
aI-1
aI-1
aI-1
aI-1
aI-1
aI-1
aI-1
aI-1
aI-1
aI-1
aI-1
aI-1
aI-1
aI-1
aa(lp836
I-1
aI13
aI12
aI11
aI10
aI-1
aI-1
aI-1
aI-1
aI-1
aI4
aI3
aI2
aI1
aI-1
aa(lp837
I1
aI1
aI1
aI1
aI1
aI1
aI1
aI1
aI1
aI1
aI1
aI1
aI1
aI1
aI1
aaa(lp838
(lp839
I1
aI1
aI3
aI2
aI1
aI3
aI1
aI1
aI1
aI1
aI2
aI1
aI2
aI2
aI1
aa(lp840
I1
aI1
aI1
aI1
aI1
aI1
aI1
aI1
aI1
aI1
aI1
aI1
aI1
aI1
aI1
aa(lp841
I1
aI2
aI2
aI2
aI2
aI1
aI1
aI1
aI1
aI1
aI3
aI3
aI3
aI3
aI1
aa(lp842
F0.0
aF0.0
aF0.0
aF0.0
aF0.0
aF0.0
aF0.0
aF0.0
aF0.0
aF0.0
aF0.0
aF0.0
aF0.0
aF0.0
aF0.0
aa(lp843
F0.699999988079071
aF0.0
aF0.0
aF0.0
aF0.0
aF0.0
aF0.0
aF0.0
aF0.0
aF0.0
aF0.0
aF0.0
aF0.0
aF0.0
aF0.0
aa(lp844
I-1
aI-1
aI-1
aI-1
aI-1
aI-1
aI-1
aI-1
aI-1
aI-1
aI-1
aI-1
aI-1
aI-1
aI-1
aa(lp845
I-1
aI13
aI12
aI11
aI10
aI-1
aI-1
aI-1
aI-1
aI-1
aI4
aI3
aI2
aI1
aI-1
aa(lp846
I1
aI1
aI1
aI1
aI1
aI1
aI1
aI1
aI1
aI1
aI1
aI1
aI1
aI1
aI1
aaa(lp847
(lp848
I1
aI1
aI2
aI2
aI1
aI3
aI1
aI1
aI1
aI1
aI2
aI1
aI2
aI2
aI1
aa(lp849
I1
aI1
aI1
aI1
aI1
aI1
aI1
aI1
aI1
aI1
aI1
aI1
aI1
aI1
aI1
aa(lp850
I1
aI2
aI2
aI2
aI2
aI1
aI1
aI1
aI1
aI1
aI3
aI3
aI3
aI3
aI1
aa(lp851
F0.0
aF0.0
aF0.0
aF0.0
aF0.0
aF0.0
aF0.0
aF0.0
aF0.0
aF0.0
aF0.0
aF0.0
aF0.0
aF0.0
aF0.0
aa(lp852
F1.5
aF0.0
aF0.0
aF0.0
aF0.0
aF0.0
aF0.0
aF0.0
aF0.0
aF0.0
aF0.0
aF0.0
aF0.0
aF0.0
aF0.0
aa(lp853
I-1
aI-1
aI-1
aI-1
aI-1
aI-1
aI-1
aI-1
aI-1
aI-1
aI-1
aI-1
aI-1
aI-1
aI-1
aa(lp854
I-1
aI13
aI12
aI11
aI10
aI-1
aI-1
aI-1
aI-1
aI-1
aI4
aI3
aI2
aI1
aI-1
aa(lp855
I1
aI1
aI1
aI1
aI1
aI1
aI1
aI1
aI1
aI1
aI1
aI1
aI1
aI1
aI1
aaa(lp856
(lp857
I1
aI1
aI2
aI2
aI1
aI3
aI1
aI1
aI1
aI1
aI2
aI1
aI3
aI2
aI1
aa(lp858
I1
aI1
aI1
aI1
aI1
aI1
aI1
aI1
aI1
aI1
aI1
aI1
aI1
aI1
aI1
aa(lp859
I1
aI2
aI2
aI2
aI2
aI1
aI1
aI1
aI1
aI1
aI3
aI3
aI3
aI3
aI1
aa(lp860
F0.0
aF0.0
aF0.0
aF0.0
aF0.0
aF0.0
aF0.0
aF0.0
aF0.0
aF0.0
aF0.0
aF0.0
aF0.0
aF0.0
aF0.0
aa(lp861
F0.699999988079071
aF0.0
aF0.0
aF0.0
aF0.0
aF0.0
aF0.0
aF0.0
aF0.0
aF0.0
aF0.0
aF0.0
aF0.0
aF0.0
aF0.0
aa(lp862
I-1
aI-1
aI-1
aI-1
aI-1
aI-1
aI-1
aI-1
aI-1
aI-1
aI-1
aI-1
aI-1
aI-1
aI-1
aa(lp863
I-1
aI13
aI12
aI11
aI10
aI-1
aI-1
aI-1
aI-1
aI-1
aI4
aI3
aI2
aI1
aI-1
aa(lp864
I1
aI1
aI1
aI1
aI1
aI1
aI1
aI1
aI1
aI1
aI1
aI1
aI1
aI1
aI1
aaa(lp865
(lp866
I1
aI1
aI2
aI1
aI1
aI3
aI1
aI1
aI1
aI1
aI2
aI1
aI3
aI2
aI1
aa(lp867
I1
aI1
aI1
aI1
aI1
aI1
aI1
aI1
aI1
aI1
aI1
aI1
aI1
aI1
aI1
aa(lp868
I1
aI2
aI2
aI2
aI2
aI1
aI1
aI1
aI1
aI1
aI3
aI3
aI3
aI3
aI1
aa(lp869
F0.0
aF0.0
aF0.0
aF0.0
aF0.0
aF0.0
aF0.0
aF0.0
aF0.0
aF0.0
aF0.0
aF0.0
aF0.0
aF0.0
aF0.0
aa(lp870
F2.0
aF0.0
aF0.0
aF0.0
aF0.0
aF0.0
aF0.0
aF0.0
aF0.0
aF0.0
aF0.0
aF0.0
aF0.0
aF0.0
aF0.0
aa(lp871
I-1
aI-1
aI-1
aI-1
aI-1
aI-1
aI-1
aI-1
aI-1
aI-1
aI-1
aI-1
aI-1
aI-1
aI-1
aa(lp872
I-1
aI13
aI12
aI11
aI10
aI-1
aI-1
aI-1
aI-1
aI-1
aI4
aI3
aI2
aI1
aI-1
aa(lp873
I1
aI1
aI1
aI1
aI1
aI1
aI1
aI1
aI1
aI1
aI1
aI1
aI1
aI1
aI1
aaa(lp874
(lp875
I1
aI1
aI2
aI1
aI1
aI3
aI1
aI1
aI1
aI1
aI2
aI2
aI3
aI2
aI1
aa(lp876
I1
aI1
aI1
aI1
aI1
aI1
aI1
aI1
aI1
aI1
aI1
aI1
aI1
aI1
aI1
aa(lp877
I1
aI2
aI2
aI2
aI2
aI1
aI1
aI1
aI1
aI1
aI3
aI3
aI3
aI3
aI1
aa(lp878
F0.0
aF0.0
aF0.0
aF0.0
aF0.0
aF0.0
aF0.0
aF0.0
aF0.0
aF0.0
aF0.0
aF0.0
aF0.0
aF0.0
aF0.0
aa(lp879
F0.699999988079071
aF0.0
aF0.0
aF0.0
aF0.0
aF0.0
aF0.0
aF0.0
aF0.0
aF0.0
aF0.0
aF0.0
aF0.0
aF0.0
aF0.0
aa(lp880
I-1
aI-1
aI-1
aI-1
aI-1
aI-1
aI-1
aI-1
aI-1
aI-1
aI-1
aI-1
aI-1
aI-1
aI-1
aa(lp881
I-1
aI13
aI12
aI11
aI10
aI-1
aI-1
aI-1
aI-1
aI-1
aI4
aI3
aI2
aI1
aI-1
aa(lp882
I1
aI1
aI1
aI1
aI1
aI1
aI1
aI1
aI1
aI1
aI1
aI1
aI1
aI1
aI1
aaa(lp883
(lp884
I1
aI1
aI2
aI2
aI1
aI3
aI1
aI1
aI1
aI1
aI2
aI2
aI3
aI2
aI1
aa(lp885
I1
aI1
aI1
aI1
aI1
aI1
aI1
aI1
aI1
aI1
aI1
aI1
aI1
aI1
aI1
aa(lp886
I1
aI2
aI2
aI2
aI2
aI1
aI1
aI1
aI1
aI1
aI3
aI3
aI3
aI3
aI1
aa(lp887
F0.0
aF0.0
aF0.0
aF0.0
aF0.0
aF0.0
aF0.0
aF0.0
aF0.0
aF0.0
aF0.0
aF0.0
aF0.0
aF0.0
aF0.0
aa(lp888
F2.0
aF0.0
aF0.0
aF0.0
aF0.0
aF0.0
aF0.0
aF0.0
aF0.0
aF0.0
aF0.0
aF0.0
aF0.0
aF0.0
aF0.0
aa(lp889
I-1
aI-1
aI-1
aI-1
aI-1
aI-1
aI-1
aI-1
aI-1
aI-1
aI-1
aI-1
aI-1
aI-1
aI-1
aa(lp890
I-1
aI13
aI12
aI11
aI10
aI-1
aI-1
aI-1
aI-1
aI-1
aI4
aI3
aI2
aI1
aI-1
aa(lp891
I1
aI1
aI1
aI1
aI1
aI1
aI1
aI1
aI1
aI1
aI1
aI1
aI1
aI1
aI1
aaa(lp892
(lp893
I1
aI1
aI2
aI2
aI1
aI3
aI1
aI1
aI1
aI1
aI2
aI1
aI3
aI2
aI1
aa(lp894
I1
aI1
aI1
aI1
aI1
aI1
aI1
aI1
aI1
aI1
aI1
aI1
aI1
aI1
aI1
aa(lp895
I1
aI2
aI2
aI2
aI2
aI1
aI1
aI1
aI1
aI1
aI3
aI3
aI3
aI3
aI1
aa(lp896
F0.0
aF0.0
aF0.0
aF0.0
aF0.0
aF0.0
aF0.0
aF0.0
aF0.0
aF0.0
aF0.0
aF0.0
aF0.0
aF0.0
aF0.0
aa(lp897
F0.699999988079071
aF0.0
aF0.0
aF0.0
aF0.0
aF0.0
aF0.0
aF0.0
aF0.0
aF0.0
aF0.0
aF0.0
aF0.0
aF0.0
aF0.0
aa(lp898
I-1
aI-1
aI-1
aI-1
aI-1
aI-1
aI-1
aI-1
aI-1
aI-1
aI-1
aI-1
aI-1
aI-1
aI-1
aa(lp899
I-1
aI13
aI12
aI11
aI10
aI-1
aI-1
aI-1
aI-1
aI-1
aI4
aI3
aI2
aI1
aI-1
aa(lp900
I1
aI1
aI1
aI1
aI1
aI1
aI1
aI1
aI1
aI1
aI1
aI1
aI1
aI1
aI1
aaa(lp901
(lp902
I1
aI1
aI2
aI2
aI1
aI3
aI1
aI1
aI1
aI1
aI2
aI3
aI3
aI2
aI1
aa(lp903
I1
aI1
aI1
aI1
aI1
aI1
aI1
aI1
aI1
aI1
aI1
aI1
aI1
aI1
aI1
aa(lp904
I1
aI2
aI2
aI2
aI2
aI1
aI1
aI1
aI1
aI1
aI3
aI3
aI3
aI3
aI1
aa(lp905
F0.0
aF0.0
aF0.0
aF0.0
aF0.0
aF0.0
aF0.0
aF0.0
aF0.0
aF0.0
aF0.0
aF0.0
aF0.0
aF0.0
aF0.0
aa(lp906
F1.100000023841858
aF0.0
aF0.0
aF0.0
aF0.0
aF0.0
aF0.0
aF0.0
aF0.0
aF0.0
aF0.0
aF0.0
aF0.0
aF0.0
aF0.0
aa(lp907
I-1
aI-1
aI-1
aI-1
aI-1
aI-1
aI-1
aI-1
aI-1
aI-1
aI-1
aI-1
aI-1
aI-1
aI-1
aa(lp908
I-1
aI13
aI12
aI11
aI10
aI-1
aI-1
aI-1
aI-1
aI-1
aI4
aI3
aI2
aI1
aI-1
aa(lp909
I1
aI1
aI1
aI1
aI1
aI1
aI1
aI1
aI1
aI1
aI1
aI1
aI1
aI1
aI1
aaa(lp910
(lp911
I1
aI1
aI2
aI3
aI1
aI3
aI1
aI1
aI1
aI1
aI2
aI3
aI3
aI2
aI1
aa(lp912
I1
aI1
aI1
aI1
aI1
aI1
aI1
aI1
aI1
aI1
aI1
aI1
aI1
aI1
aI1
aa(lp913
I1
aI2
aI2
aI2
aI2
aI1
aI1
aI1
aI1
aI1
aI3
aI3
aI3
aI3
aI1
aa(lp914
F0.0
aF0.0
aF0.0
aF0.0
aF0.0
aF0.0
aF0.0
aF0.0
aF0.0
aF0.0
aF0.0
aF0.0
aF0.0
aF0.0
aF0.0
aa(lp915
F2.0
aF0.0
aF0.0
aF0.0
aF0.0
aF0.0
aF0.0
aF0.0
aF0.0
aF0.0
aF0.0
aF0.0
aF0.0
aF0.0
aF0.0
aa(lp916
I-1
aI-1
aI-1
aI-1
aI-1
aI-1
aI-1
aI-1
aI-1
aI-1
aI-1
aI-1
aI-1
aI-1
aI-1
aa(lp917
I-1
aI13
aI12
aI11
aI10
aI-1
aI-1
aI-1
aI-1
aI-1
aI4
aI3
aI2
aI1
aI-1
aa(lp918
I1
aI1
aI1
aI1
aI1
aI1
aI1
aI1
aI1
aI1
aI1
aI1
aI1
aI1
aI1
aaa(lp919
(lp920
I1
aI1
aI2
aI3
aI1
aI3
aI1
aI1
aI1
aI1
aI2
aI2
aI3
aI2
aI1
aa(lp921
I1
aI1
aI1
aI1
aI1
aI1
aI1
aI1
aI1
aI1
aI1
aI1
aI1
aI1
aI1
aa(lp922
I1
aI2
aI2
aI2
aI2
aI1
aI1
aI1
aI1
aI1
aI3
aI3
aI3
aI3
aI1
aa(lp923
F0.0
aF0.0
aF0.0
aF0.0
aF0.0
aF0.0
aF0.0
aF0.0
aF0.0
aF0.0
aF0.0
aF0.0
aF0.0
aF0.0
aF0.0
aa(lp924
F1.600000023841858
aF0.0
aF0.0
aF0.0
aF0.0
aF0.0
aF0.0
aF0.0
aF0.0
aF0.0
aF0.0
aF0.0
aF0.0
aF0.0
aF0.0
aa(lp925
I-1
aI-1
aI-1
aI-1
aI-1
aI-1
aI-1
aI-1
aI-1
aI-1
aI-1
aI-1
aI-1
aI-1
aI-1
aa(lp926
I-1
aI13
aI12
aI11
aI10
aI-1
aI-1
aI-1
aI-1
aI-1
aI4
aI3
aI2
aI1
aI-1
aa(lp927
I1
aI1
aI1
aI1
aI1
aI1
aI1
aI1
aI1
aI1
aI1
aI1
aI1
aI1
aI1
aaa(lp928
(lp929
I1
aI1
aI3
aI3
aI1
aI3
aI1
aI1
aI1
aI1
aI2
aI2
aI3
aI2
aI1
aa(lp930
I1
aI1
aI1
aI1
aI1
aI1
aI1
aI1
aI1
aI1
aI1
aI1
aI1
aI1
aI1
aa(lp931
I1
aI2
aI2
aI2
aI2
aI1
aI1
aI1
aI1
aI1
aI3
aI3
aI3
aI3
aI1
aa(lp932
F0.0
aF0.0
aF0.0
aF0.0
aF0.0
aF0.0
aF0.0
aF0.0
aF0.0
aF0.0
aF0.0
aF0.0
aF0.0
aF0.0
aF0.0
aa(lp933
F2.4000000953674316
aF0.0
aF0.0
aF0.0
aF0.0
aF0.0
aF0.0
aF0.0
aF0.0
aF0.0
aF0.0
aF0.0
aF0.0
aF0.0
aF0.0
aa(lp934
I-1
aI-1
aI-1
aI-1
aI-1
aI-1
aI-1
aI-1
aI-1
aI-1
aI-1
aI-1
aI-1
aI-1
aI-1
aa(lp935
I-1
aI13
aI12
aI11
aI10
aI-1
aI-1
aI-1
aI-1
aI-1
aI4
aI3
aI2
aI1
aI-1
aa(lp936
I1
aI1
aI1
aI1
aI1
aI1
aI1
aI1
aI1
aI1
aI1
aI1
aI1
aI1
aI1
aaa(lp937
(lp938
I1
aI1
aI3
aI3
aI1
aI3
aI1
aI1
aI1
aI1
aI2
aI2
aI2
aI2
aI1
aa(lp939
I1
aI1
aI1
aI1
aI1
aI1
aI1
aI1
aI1
aI1
aI1
aI1
aI1
aI1
aI1
aa(lp940
I1
aI2
aI2
aI2
aI2
aI1
aI1
aI1
aI1
aI1
aI3
aI3
aI3
aI3
aI1
aa(lp941
F0.0
aF0.0
aF0.0
aF0.0
aF0.0
aF0.0
aF0.0
aF0.0
aF0.0
aF0.0
aF0.0
aF0.0
aF0.0
aF0.0
aF0.0
aa(lp942
F1.600000023841858
aF0.0
aF0.0
aF0.0
aF0.0
aF0.0
aF0.0
aF0.0
aF0.0
aF0.0
aF0.0
aF0.0
aF0.0
aF0.0
aF0.0
aa(lp943
I-1
aI-1
aI-1
aI-1
aI-1
aI-1
aI-1
aI-1
aI-1
aI-1
aI-1
aI-1
aI-1
aI-1
aI-1
aa(lp944
I-1
aI13
aI12
aI11
aI10
aI-1
aI-1
aI-1
aI-1
aI-1
aI4
aI3
aI2
aI1
aI-1
aa(lp945
I1
aI1
aI1
aI1
aI1
aI1
aI1
aI1
aI1
aI1
aI1
aI1
aI1
aI1
aI1
aaa(lp946
(lp947
I1
aI1
aI3
aI3
aI2
aI3
aI1
aI1
aI1
aI1
aI2
aI2
aI2
aI2
aI1
aa(lp948
I1
aI1
aI1
aI1
aI1
aI1
aI1
aI1
aI1
aI1
aI1
aI1
aI1
aI1
aI1
aa(lp949
I1
aI2
aI2
aI2
aI2
aI1
aI1
aI1
aI1
aI1
aI3
aI3
aI3
aI3
aI1
aa(lp950
F0.0
aF0.0
aF0.0
aF0.0
aF0.0
aF0.0
aF0.0
aF0.0
aF0.0
aF0.0
aF0.0
aF0.0
aF0.0
aF0.0
aF0.0
aa(lp951
F4.5
aF0.0
aF0.0
aF0.0
aF0.0
aF0.0
aF0.0
aF0.0
aF0.0
aF0.0
aF0.0
aF0.0
aF0.0
aF0.0
aF0.0
aa(lp952
I-1
aI-1
aI-1
aI-1
aI-1
aI-1
aI-1
aI-1
aI-1
aI-1
aI-1
aI-1
aI-1
aI-1
aI-1
aa(lp953
I-1
aI13
aI12
aI11
aI10
aI-1
aI-1
aI-1
aI-1
aI-1
aI4
aI3
aI2
aI1
aI-1
aa(lp954
I1
aI1
aI1
aI1
aI1
aI1
aI1
aI1
aI1
aI1
aI1
aI1
aI1
aI1
aI1
aaa(lp955
(lp956
I1
aI1
aI3
aI3
aI2
aI3
aI1
aI1
aI1
aI1
aI3
aI2
aI2
aI2
aI1
aa(lp957
I1
aI1
aI1
aI1
aI1
aI1
aI1
aI1
aI1
aI1
aI1
aI1
aI1
aI1
aI1
aa(lp958
I1
aI2
aI2
aI2
aI2
aI1
aI1
aI1
aI1
aI1
aI3
aI3
aI3
aI3
aI1
aa(lp959
F0.0
aF0.0
aF0.0
aF0.0
aF0.0
aF0.0
aF0.0
aF0.0
aF0.0
aF0.0
aF0.0
aF0.0
aF0.0
aF0.0
aF0.0
aa(lp960
F4.5
aF0.0
aF0.0
aF0.0
aF0.0
aF0.0
aF0.0
aF0.0
aF0.0
aF0.0
aF0.0
aF0.0
aF0.0
aF0.0
aF0.0
aa(lp961
I-1
aI-1
aI-1
aI-1
aI-1
aI-1
aI-1
aI-1
aI-1
aI-1
aI-1
aI-1
aI-1
aI-1
aI-1
aa(lp962
I-1
aI13
aI12
aI11
aI10
aI-1
aI-1
aI-1
aI-1
aI-1
aI4
aI3
aI2
aI1
aI-1
aa(lp963
I1
aI1
aI1
aI1
aI1
aI1
aI1
aI1
aI1
aI1
aI1
aI1
aI1
aI1
aI1
aaa(lp964
(lp965
I1
aI3
aI3
aI3
aI2
aI3
aI1
aI1
aI1
aI1
aI3
aI2
aI2
aI2
aI1
aa(lp966
I1
aI1
aI1
aI1
aI1
aI1
aI1
aI1
aI1
aI1
aI1
aI1
aI1
aI1
aI1
aa(lp967
I1
aI2
aI2
aI2
aI2
aI1
aI1
aI1
aI1
aI1
aI3
aI3
aI3
aI3
aI1
aa(lp968
F0.0
aF0.0
aF0.0
aF0.0
aF0.0
aF0.0
aF0.0
aF0.0
aF0.0
aF0.0
aF0.0
aF0.0
aF0.0
aF0.0
aF0.0
aa(lp969
F4.599999904632568
aF0.0
aF0.0
aF0.0
aF0.0
aF0.0
aF0.0
aF0.0
aF0.0
aF0.0
aF0.0
aF0.0
aF0.0
aF0.0
aF0.0
aa(lp970
I-1
aI-1
aI-1
aI-1
aI-1
aI-1
aI-1
aI-1
aI-1
aI-1
aI-1
aI-1
aI-1
aI-1
aI-1
aa(lp971
I-1
aI13
aI12
aI11
aI10
aI-1
aI-1
aI-1
aI-1
aI-1
aI4
aI3
aI2
aI1
aI-1
aa(lp972
I1
aI1
aI1
aI1
aI1
aI1
aI1
aI1
aI1
aI1
aI1
aI1
aI1
aI1
aI1
aaa(lp973
(lp974
I1
aI3
aI3
aI2
aI2
aI3
aI1
aI1
aI1
aI1
aI3
aI2
aI2
aI2
aI1
aa(lp975
I1
aI1
aI1
aI1
aI1
aI1
aI1
aI1
aI1
aI1
aI1
aI1
aI1
aI1
aI1
aa(lp976
I1
aI2
aI2
aI2
aI2
aI1
aI1
aI1
aI1
aI1
aI3
aI3
aI3
aI3
aI1
aa(lp977
F0.0
aF0.0
aF0.0
aF0.0
aF0.0
aF0.0
aF0.0
aF0.0
aF0.0
aF0.0
aF0.0
aF0.0
aF0.0
aF0.0
aF0.0
aa(lp978
F6.400000095367432
aF0.0
aF0.0
aF0.0
aF0.0
aF0.0
aF0.0
aF0.0
aF0.0
aF0.0
aF0.0
aF0.0
aF0.0
aF0.0
aF0.0
aa(lp979
I-1
aI-1
aI-1
aI-1
aI-1
aI-1
aI-1
aI-1
aI-1
aI-1
aI-1
aI-1
aI-1
aI-1
aI-1
aa(lp980
I-1
aI13
aI12
aI11
aI10
aI-1
aI-1
aI-1
aI-1
aI-1
aI4
aI3
aI2
aI1
aI-1
aa(lp981
I1
aI1
aI1
aI1
aI1
aI1
aI1
aI1
aI1
aI1
aI1
aI1
aI1
aI1
aI1
aaa(lp982
(lp983
I1
aI3
aI3
aI2
aI2
aI3
aI1
aI1
aI1
aI1
aI3
aI1
aI2
aI2
aI1
aa(lp984
I1
aI1
aI1
aI1
aI1
aI1
aI1
aI1
aI1
aI1
aI1
aI1
aI1
aI1
aI1
aa(lp985
I1
aI2
aI2
aI2
aI2
aI1
aI1
aI1
aI1
aI1
aI3
aI3
aI3
aI3
aI1
aa(lp986
F0.0
aF0.0
aF0.0
aF0.0
aF0.0
aF0.0
aF0.0
aF0.0
aF0.0
aF0.0
aF0.0
aF0.0
aF0.0
aF0.0
aF0.0
aa(lp987
F1.100000023841858
aF0.0
aF0.0
aF0.0
aF0.0
aF0.0
aF0.0
aF0.0
aF0.0
aF0.0
aF0.0
aF0.0
aF0.0
aF0.0
aF0.0
aa(lp988
I-1
aI-1
aI-1
aI-1
aI-1
aI-1
aI-1
aI-1
aI-1
aI-1
aI-1
aI-1
aI-1
aI-1
aI-1
aa(lp989
I-1
aI13
aI12
aI11
aI10
aI-1
aI-1
aI-1
aI-1
aI-1
aI4
aI3
aI2
aI1
aI-1
aa(lp990
I1
aI1
aI1
aI1
aI1
aI1
aI1
aI1
aI1
aI1
aI1
aI1
aI1
aI1
aI1
aaa(lp991
(lp992
I1
aI3
aI2
aI2
aI2
aI3
aI1
aI1
aI1
aI1
aI3
aI1
aI2
aI2
aI1
aa(lp993
I1
aI1
aI1
aI1
aI1
aI1
aI1
aI1
aI1
aI1
aI1
aI1
aI1
aI1
aI1
aa(lp994
I1
aI2
aI2
aI2
aI2
aI1
aI1
aI1
aI1
aI1
aI3
aI3
aI3
aI3
aI1
aa(lp995
F0.0
aF0.0
aF0.0
aF0.0
aF0.0
aF0.0
aF0.0
aF0.0
aF0.0
aF0.0
aF0.0
aF0.0
aF0.0
aF0.0
aF0.0
aa(lp996
F3.700000047683716
aF0.0
aF0.0
aF0.0
aF0.0
aF0.0
aF0.0
aF0.0
aF0.0
aF0.0
aF0.0
aF0.0
aF0.0
aF0.0
aF0.0
aa(lp997
I-1
aI-1
aI-1
aI-1
aI-1
aI-1
aI-1
aI-1
aI-1
aI-1
aI-1
aI-1
aI-1
aI-1
aI-1
aa(lp998
I-1
aI13
aI12
aI11
aI10
aI-1
aI-1
aI-1
aI-1
aI-1
aI4
aI3
aI2
aI1
aI-1
aa(lp999
I1
aI1
aI1
aI1
aI1
aI1
aI1
aI1
aI1
aI1
aI1
aI1
aI1
aI1
aI1
aaa(lp1000
(lp1001
I1
aI3
aI2
aI2
aI2
aI3
aI1
aI1
aI1
aI1
aI3
aI1
aI1
aI2
aI1
aa(lp1002
I1
aI1
aI1
aI1
aI1
aI1
aI1
aI1
aI1
aI1
aI1
aI1
aI1
aI1
aI1
aa(lp1003
I1
aI2
aI2
aI2
aI2
aI1
aI1
aI1
aI1
aI1
aI3
aI3
aI3
aI3
aI1
aa(lp1004
F0.0
aF0.0
aF0.0
aF0.0
aF0.0
aF0.0
aF0.0
aF0.0
aF0.0
aF0.0
aF0.0
aF0.0
aF0.0
aF0.0
aF0.0
aa(lp1005
F0.699999988079071
aF0.0
aF0.0
aF0.0
aF0.0
aF0.0
aF0.0
aF0.0
aF0.0
aF0.0
aF0.0
aF0.0
aF0.0
aF0.0
aF0.0
aa(lp1006
I-1
aI-1
aI-1
aI-1
aI-1
aI-1
aI-1
aI-1
aI-1
aI-1
aI-1
aI-1
aI-1
aI-1
aI-1
aa(lp1007
I-1
aI13
aI12
aI11
aI10
aI-1
aI-1
aI-1
aI-1
aI-1
aI4
aI3
aI2
aI1
aI-1
aa(lp1008
I1
aI1
aI1
aI1
aI1
aI1
aI1
aI1
aI1
aI1
aI1
aI1
aI1
aI1
aI1
aaa(lp1009
(lp1010
I1
aI3
aI2
aI1
aI2
aI3
aI1
aI1
aI1
aI1
aI3
aI1
aI1
aI2
aI1
aa(lp1011
I1
aI1
aI1
aI1
aI1
aI1
aI1
aI1
aI1
aI1
aI1
aI1
aI1
aI1
aI1
aa(lp1012
I1
aI2
aI2
aI2
aI2
aI1
aI1
aI1
aI1
aI1
aI3
aI3
aI3
aI3
aI1
aa(lp1013
F0.0
aF0.0
aF0.0
aF0.0
aF0.0
aF0.0
aF0.0
aF0.0
aF0.0
aF0.0
aF0.0
aF0.0
aF0.0
aF0.0
aF0.0
aa(lp1014
F3.299999952316284
aF0.0
aF0.0
aF0.0
aF0.0
aF0.0
aF0.0
aF0.0
aF0.0
aF0.0
aF0.0
aF0.0
aF0.0
aF0.0
aF0.0
aa(lp1015
I-1
aI-1
aI-1
aI-1
aI-1
aI-1
aI-1
aI-1
aI-1
aI-1
aI-1
aI-1
aI-1
aI-1
aI-1
aa(lp1016
I-1
aI13
aI12
aI11
aI10
aI-1
aI-1
aI-1
aI-1
aI-1
aI4
aI3
aI2
aI1
aI-1
aa(lp1017
I1
aI1
aI1
aI1
aI1
aI1
aI1
aI1
aI1
aI1
aI1
aI1
aI1
aI1
aI1
aaa(lp1018
(lp1019
I1
aI3
aI2
aI1
aI2
aI3
aI1
aI1
aI1
aI1
aI3
aI2
aI1
aI2
aI1
aa(lp1020
I1
aI1
aI1
aI1
aI1
aI1
aI1
aI1
aI1
aI1
aI1
aI1
aI1
aI1
aI1
aa(lp1021
I1
aI2
aI2
aI2
aI2
aI1
aI1
aI1
aI1
aI1
aI3
aI3
aI3
aI3
aI1
aa(lp1022
F0.0
aF0.0
aF0.0
aF0.0
aF0.0
aF0.0
aF0.0
aF0.0
aF0.0
aF0.0
aF0.0
aF0.0
aF0.0
aF0.0
aF0.0
aa(lp1023
F0.20000000298023224
aF0.0
aF0.0
aF0.0
aF0.0
aF0.0
aF0.0
aF0.0
aF0.0
aF0.0
aF0.0
aF0.0
aF0.0
aF0.0
aF0.0
aa(lp1024
I-1
aI-1
aI-1
aI-1
aI-1
aI-1
aI-1
aI-1
aI-1
aI-1
aI-1
aI-1
aI-1
aI-1
aI-1
aa(lp1025
I-1
aI13
aI12
aI11
aI10
aI-1
aI-1
aI-1
aI-1
aI-1
aI4
aI3
aI2
aI1
aI-1
aa(lp1026
I1
aI1
aI1
aI1
aI1
aI1
aI1
aI1
aI1
aI1
aI1
aI1
aI1
aI1
aI1
aaa(lp1027
(lp1028
I1
aI3
aI2
aI1
aI2
aI2
aI1
aI1
aI1
aI1
aI3
aI2
aI1
aI2
aI1
aa(lp1029
I1
aI1
aI1
aI1
aI1
aI1
aI1
aI1
aI1
aI1
aI1
aI1
aI1
aI1
aI1
aa(lp1030
I1
aI2
aI2
aI2
aI2
aI1
aI1
aI1
aI1
aI1
aI3
aI3
aI3
aI3
aI1
aa(lp1031
F0.0
aF0.0
aF0.0
aF0.0
aF0.0
aF0.0
aF0.0
aF0.0
aF0.0
aF0.0
aF0.0
aF0.0
aF0.0
aF0.0
aF0.0
aa(lp1032
F0.8999999761581421
aF0.0
aF0.0
aF0.0
aF0.0
aF0.0
aF0.0
aF0.0
aF0.0
aF0.0
aF0.0
aF0.0
aF0.0
aF0.0
aF0.0
aa(lp1033
I-1
aI-1
aI-1
aI-1
aI-1
aI-1
aI-1
aI-1
aI-1
aI-1
aI-1
aI-1
aI-1
aI-1
aI-1
aa(lp1034
I-1
aI13
aI12
aI11
aI10
aI-1
aI-1
aI-1
aI-1
aI-1
aI4
aI3
aI2
aI1
aI-1
aa(lp1035
I1
aI1
aI1
aI1
aI1
aI1
aI1
aI1
aI1
aI1
aI1
aI1
aI1
aI1
aI1
aaa(lp1036
(lp1037
I1
aI3
aI2
aI1
aI2
aI2
aI1
aI1
aI1
aI2
aI3
aI2
aI1
aI2
aI1
aa(lp1038
I1
aI1
aI1
aI1
aI1
aI1
aI1
aI1
aI1
aI1
aI1
aI1
aI1
aI1
aI1
aa(lp1039
I1
aI2
aI2
aI2
aI2
aI1
aI1
aI1
aI1
aI1
aI3
aI3
aI3
aI3
aI1
aa(lp1040
F0.0
aF0.0
aF0.0
aF0.0
aF0.0
aF0.0
aF0.0
aF0.0
aF0.0
aF0.0
aF0.0
aF0.0
aF0.0
aF0.0
aF0.0
aa(lp1041
F0.20000000298023224
aF0.0
aF0.0
aF0.0
aF0.0
aF0.0
aF0.0
aF0.0
aF0.0
aF0.0
aF0.0
aF0.0
aF0.0
aF0.0
aF0.0
aa(lp1042
I-1
aI-1
aI-1
aI-1
aI-1
aI-1
aI-1
aI-1
aI-1
aI-1
aI-1
aI-1
aI-1
aI-1
aI-1
aa(lp1043
I-1
aI13
aI12
aI11
aI10
aI-1
aI-1
aI-1
aI-1
aI-1
aI4
aI3
aI2
aI1
aI-1
aa(lp1044
I1
aI1
aI1
aI1
aI1
aI1
aI1
aI1
aI1
aI1
aI1
aI1
aI1
aI1
aI1
aaa(lp1045
(lp1046
I1
aI3
aI2
aI1
aI2
aI3
aI1
aI1
aI1
aI2
aI3
aI2
aI1
aI2
aI1
aa(lp1047
I1
aI1
aI1
aI1
aI1
aI1
aI1
aI1
aI1
aI1
aI1
aI1
aI1
aI1
aI1
aa(lp1048
I1
aI2
aI2
aI2
aI2
aI1
aI1
aI1
aI1
aI1
aI3
aI3
aI3
aI3
aI1
aa(lp1049
F0.0
aF0.0
aF0.0
aF0.0
aF0.0
aF0.0
aF0.0
aF0.0
aF0.0
aF0.0
aF0.0
aF0.0
aF0.0
aF0.0
aF0.0
aa(lp1050
F0.800000011920929
aF0.0
aF0.0
aF0.0
aF0.0
aF0.0
aF0.0
aF0.0
aF0.0
aF0.0
aF0.0
aF0.0
aF0.0
aF0.0
aF0.0
aa(lp1051
I-1
aI-1
aI-1
aI-1
aI-1
aI-1
aI-1
aI-1
aI-1
aI-1
aI-1
aI-1
aI-1
aI-1
aI-1
aa(lp1052
I-1
aI13
aI12
aI11
aI10
aI-1
aI-1
aI-1
aI-1
aI-1
aI4
aI3
aI2
aI1
aI-1
aa(lp1053
I1
aI1
aI1
aI1
aI1
aI1
aI1
aI1
aI1
aI1
aI1
aI1
aI1
aI1
aI1
aaa(lp1054
(lp1055
I1
aI3
aI2
aI1
aI2
aI3
aI1
aI1
aI1
aI4
aI3
aI2
aI1
aI2
aI1
aa(lp1056
I1
aI2
aI2
aI2
aI2
aI2
aI1
aI1
aI1
aI3
aI3
aI3
aI3
aI3
aI1
aa(lp1057
I1
aI2
aI2
aI2
aI2
aI1
aI1
aI1
aI1
aI1
aI3
aI3
aI3
aI3
aI1
aa(lp1058
F-0.6000000238418579
aF0.0
aF0.0
aF0.0
aF0.0
aF0.0
aF0.0
aF0.0
aF0.0
aF0.0
aF0.0
aF0.0
aF0.0
aF0.0
aF0.0
aa(lp1059
F0.800000011920929
aF0.0
aF0.0
aF0.0
aF0.0
aF0.0
aF0.0
aF0.0
aF0.0
aF0.0
aF0.0
aF0.0
aF0.0
aF0.0
aF0.0
aa(lp1060
I-1
aI13
aI12
aI11
aI10
aI9
aI-1
aI-1
aI-1
aI5
aI4
aI3
aI2
aI1
aI-1
aa(lp1061
I-1
aI13
aI12
aI11
aI10
aI-1
aI-1
aI-1
aI-1
aI-1
aI4
aI3
aI2
aI1
aI-1
aa(lp1062
I1
aI1
aI1
aI1
aI1
aI1
aI1
aI1
aI1
aI1
aI1
aI1
aI1
aI1
aI1
aaa(lp1063
(lp1064
I1
aI3
aI2
aI1
aI2
aI3
aI1
aI1
aI1
aI3
aI3
aI2
aI1
aI2
aI1
aa(lp1065
I1
aI1
aI1
aI1
aI1
aI1
aI1
aI1
aI1
aI1
aI1
aI1
aI1
aI1
aI1
aa(lp1066
I1
aI2
aI2
aI2
aI2
aI1
aI1
aI1
aI1
aI1
aI3
aI3
aI3
aI3
aI1
aa(lp1067
F0.0
aF0.0
aF0.0
aF0.0
aF0.0
aF0.0
aF0.0
aF0.0
aF0.0
aF0.0
aF0.0
aF0.0
aF0.0
aF0.0
aF0.0
aa(lp1068
F0.0
aF0.0
aF0.0
aF0.0
aF0.0
aF0.0
aF0.0
aF0.0
aF0.0
aF0.0
aF0.0
aF0.0
aF0.0
aF0.0
aF0.0
aa(lp1069
I-1
aI-1
aI-1
aI-1
aI-1
aI-1
aI-1
aI-1
aI-1
aI-1
aI-1
aI-1
aI-1
aI-1
aI-1
aa(lp1070
I-1
aI13
aI12
aI11
aI10
aI-1
aI-1
aI-1
aI-1
aI-1
aI4
aI3
aI2
aI1
aI-1
aa(lp1071
I1
aI1
aI1
aI1
aI1
aI1
aI1
aI1
aI1
aI1
aI1
aI1
aI1
aI1
aI1
aaa.